
user/_usertests:     file format elf64-littleriscv


Disassembly of section .text:

0000000000000000 <copyinstr1>:
}

// what if you pass ridiculous string pointers to system calls?
void
copyinstr1(char *s)
{
       0:	1141                	add	sp,sp,-16
       2:	e406                	sd	ra,8(sp)
       4:	e022                	sd	s0,0(sp)
       6:	0800                	add	s0,sp,16
  uint64 addrs[] = { 0x80000000LL, 0xffffffffffffffff };

  for(int ai = 0; ai < 2; ai++){
    uint64 addr = addrs[ai];

    int fd = open((char *)addr, O_CREATE|O_WRONLY);
       8:	20100593          	li	a1,513
       c:	4505                	li	a0,1
       e:	057e                	sll	a0,a0,0x1f
      10:	00006097          	auipc	ra,0x6
      14:	c5c080e7          	jalr	-932(ra) # 5c6c <open>
    if(fd >= 0){
      18:	02055063          	bgez	a0,38 <copyinstr1+0x38>
    int fd = open((char *)addr, O_CREATE|O_WRONLY);
      1c:	20100593          	li	a1,513
      20:	557d                	li	a0,-1
      22:	00006097          	auipc	ra,0x6
      26:	c4a080e7          	jalr	-950(ra) # 5c6c <open>
    if(fd >= 0){
      2a:	55fd                	li	a1,-1
      2c:	00055863          	bgez	a0,3c <copyinstr1+0x3c>
      printf("open(%p) returned %d, not -1\n", addr, fd);
      exit(1);
    }
  }
}
      30:	60a2                	ld	ra,8(sp)
      32:	6402                	ld	s0,0(sp)
      34:	0141                	add	sp,sp,16
      36:	8082                	ret
    uint64 addr = addrs[ai];
      38:	4585                	li	a1,1
      3a:	05fe                	sll	a1,a1,0x1f
      printf("open(%p) returned %d, not -1\n", addr, fd);
      3c:	862a                	mv	a2,a0
      3e:	00006517          	auipc	a0,0x6
      42:	11250513          	add	a0,a0,274 # 6150 <malloc+0x104>
      46:	00006097          	auipc	ra,0x6
      4a:	f4e080e7          	jalr	-178(ra) # 5f94 <printf>
      exit(1);
      4e:	4505                	li	a0,1
      50:	00006097          	auipc	ra,0x6
      54:	bdc080e7          	jalr	-1060(ra) # 5c2c <exit>

0000000000000058 <bsstest>:
void
bsstest(char *s)
{
  int i;

  for(i = 0; i < sizeof(uninit); i++){
      58:	0000a797          	auipc	a5,0xa
      5c:	51078793          	add	a5,a5,1296 # a568 <uninit>
      60:	0000d697          	auipc	a3,0xd
      64:	c1868693          	add	a3,a3,-1000 # cc78 <buf>
    if(uninit[i] != '\0'){
      68:	0007c703          	lbu	a4,0(a5)
      6c:	e709                	bnez	a4,76 <bsstest+0x1e>
  for(i = 0; i < sizeof(uninit); i++){
      6e:	0785                	add	a5,a5,1
      70:	fed79ce3          	bne	a5,a3,68 <bsstest+0x10>
      74:	8082                	ret
{
      76:	1141                	add	sp,sp,-16
      78:	e406                	sd	ra,8(sp)
      7a:	e022                	sd	s0,0(sp)
      7c:	0800                	add	s0,sp,16
      printf("%s: bss test failed\n", s);
      7e:	85aa                	mv	a1,a0
      80:	00006517          	auipc	a0,0x6
      84:	0f050513          	add	a0,a0,240 # 6170 <malloc+0x124>
      88:	00006097          	auipc	ra,0x6
      8c:	f0c080e7          	jalr	-244(ra) # 5f94 <printf>
      exit(1);
      90:	4505                	li	a0,1
      92:	00006097          	auipc	ra,0x6
      96:	b9a080e7          	jalr	-1126(ra) # 5c2c <exit>

000000000000009a <opentest>:
{
      9a:	1101                	add	sp,sp,-32
      9c:	ec06                	sd	ra,24(sp)
      9e:	e822                	sd	s0,16(sp)
      a0:	e426                	sd	s1,8(sp)
      a2:	1000                	add	s0,sp,32
      a4:	84aa                	mv	s1,a0
  fd = open("echo", 0);
      a6:	4581                	li	a1,0
      a8:	00006517          	auipc	a0,0x6
      ac:	0e050513          	add	a0,a0,224 # 6188 <malloc+0x13c>
      b0:	00006097          	auipc	ra,0x6
      b4:	bbc080e7          	jalr	-1092(ra) # 5c6c <open>
  if(fd < 0){
      b8:	02054663          	bltz	a0,e4 <opentest+0x4a>
  close(fd);
      bc:	00006097          	auipc	ra,0x6
      c0:	b98080e7          	jalr	-1128(ra) # 5c54 <close>
  fd = open("doesnotexist", 0);
      c4:	4581                	li	a1,0
      c6:	00006517          	auipc	a0,0x6
      ca:	0e250513          	add	a0,a0,226 # 61a8 <malloc+0x15c>
      ce:	00006097          	auipc	ra,0x6
      d2:	b9e080e7          	jalr	-1122(ra) # 5c6c <open>
  if(fd >= 0){
      d6:	02055563          	bgez	a0,100 <opentest+0x66>
}
      da:	60e2                	ld	ra,24(sp)
      dc:	6442                	ld	s0,16(sp)
      de:	64a2                	ld	s1,8(sp)
      e0:	6105                	add	sp,sp,32
      e2:	8082                	ret
    printf("%s: open echo failed!\n", s);
      e4:	85a6                	mv	a1,s1
      e6:	00006517          	auipc	a0,0x6
      ea:	0aa50513          	add	a0,a0,170 # 6190 <malloc+0x144>
      ee:	00006097          	auipc	ra,0x6
      f2:	ea6080e7          	jalr	-346(ra) # 5f94 <printf>
    exit(1);
      f6:	4505                	li	a0,1
      f8:	00006097          	auipc	ra,0x6
      fc:	b34080e7          	jalr	-1228(ra) # 5c2c <exit>
    printf("%s: open doesnotexist succeeded!\n", s);
     100:	85a6                	mv	a1,s1
     102:	00006517          	auipc	a0,0x6
     106:	0b650513          	add	a0,a0,182 # 61b8 <malloc+0x16c>
     10a:	00006097          	auipc	ra,0x6
     10e:	e8a080e7          	jalr	-374(ra) # 5f94 <printf>
    exit(1);
     112:	4505                	li	a0,1
     114:	00006097          	auipc	ra,0x6
     118:	b18080e7          	jalr	-1256(ra) # 5c2c <exit>

000000000000011c <truncate2>:
{
     11c:	7179                	add	sp,sp,-48
     11e:	f406                	sd	ra,40(sp)
     120:	f022                	sd	s0,32(sp)
     122:	ec26                	sd	s1,24(sp)
     124:	e84a                	sd	s2,16(sp)
     126:	e44e                	sd	s3,8(sp)
     128:	1800                	add	s0,sp,48
     12a:	89aa                	mv	s3,a0
  unlink("truncfile");
     12c:	00006517          	auipc	a0,0x6
     130:	0b450513          	add	a0,a0,180 # 61e0 <malloc+0x194>
     134:	00006097          	auipc	ra,0x6
     138:	b48080e7          	jalr	-1208(ra) # 5c7c <unlink>
  int fd1 = open("truncfile", O_CREATE|O_TRUNC|O_WRONLY);
     13c:	60100593          	li	a1,1537
     140:	00006517          	auipc	a0,0x6
     144:	0a050513          	add	a0,a0,160 # 61e0 <malloc+0x194>
     148:	00006097          	auipc	ra,0x6
     14c:	b24080e7          	jalr	-1244(ra) # 5c6c <open>
     150:	84aa                	mv	s1,a0
  write(fd1, "abcd", 4);
     152:	4611                	li	a2,4
     154:	00006597          	auipc	a1,0x6
     158:	09c58593          	add	a1,a1,156 # 61f0 <malloc+0x1a4>
     15c:	00006097          	auipc	ra,0x6
     160:	af0080e7          	jalr	-1296(ra) # 5c4c <write>
  int fd2 = open("truncfile", O_TRUNC|O_WRONLY);
     164:	40100593          	li	a1,1025
     168:	00006517          	auipc	a0,0x6
     16c:	07850513          	add	a0,a0,120 # 61e0 <malloc+0x194>
     170:	00006097          	auipc	ra,0x6
     174:	afc080e7          	jalr	-1284(ra) # 5c6c <open>
     178:	892a                	mv	s2,a0
  int n = write(fd1, "x", 1);
     17a:	4605                	li	a2,1
     17c:	00006597          	auipc	a1,0x6
     180:	07c58593          	add	a1,a1,124 # 61f8 <malloc+0x1ac>
     184:	8526                	mv	a0,s1
     186:	00006097          	auipc	ra,0x6
     18a:	ac6080e7          	jalr	-1338(ra) # 5c4c <write>
  if(n != -1){
     18e:	57fd                	li	a5,-1
     190:	02f51b63          	bne	a0,a5,1c6 <truncate2+0xaa>
  unlink("truncfile");
     194:	00006517          	auipc	a0,0x6
     198:	04c50513          	add	a0,a0,76 # 61e0 <malloc+0x194>
     19c:	00006097          	auipc	ra,0x6
     1a0:	ae0080e7          	jalr	-1312(ra) # 5c7c <unlink>
  close(fd1);
     1a4:	8526                	mv	a0,s1
     1a6:	00006097          	auipc	ra,0x6
     1aa:	aae080e7          	jalr	-1362(ra) # 5c54 <close>
  close(fd2);
     1ae:	854a                	mv	a0,s2
     1b0:	00006097          	auipc	ra,0x6
     1b4:	aa4080e7          	jalr	-1372(ra) # 5c54 <close>
}
     1b8:	70a2                	ld	ra,40(sp)
     1ba:	7402                	ld	s0,32(sp)
     1bc:	64e2                	ld	s1,24(sp)
     1be:	6942                	ld	s2,16(sp)
     1c0:	69a2                	ld	s3,8(sp)
     1c2:	6145                	add	sp,sp,48
     1c4:	8082                	ret
    printf("%s: write returned %d, expected -1\n", s, n);
     1c6:	862a                	mv	a2,a0
     1c8:	85ce                	mv	a1,s3
     1ca:	00006517          	auipc	a0,0x6
     1ce:	03650513          	add	a0,a0,54 # 6200 <malloc+0x1b4>
     1d2:	00006097          	auipc	ra,0x6
     1d6:	dc2080e7          	jalr	-574(ra) # 5f94 <printf>
    exit(1);
     1da:	4505                	li	a0,1
     1dc:	00006097          	auipc	ra,0x6
     1e0:	a50080e7          	jalr	-1456(ra) # 5c2c <exit>

00000000000001e4 <createtest>:
{
     1e4:	7179                	add	sp,sp,-48
     1e6:	f406                	sd	ra,40(sp)
     1e8:	f022                	sd	s0,32(sp)
     1ea:	ec26                	sd	s1,24(sp)
     1ec:	e84a                	sd	s2,16(sp)
     1ee:	1800                	add	s0,sp,48
  name[0] = 'a';
     1f0:	06100793          	li	a5,97
     1f4:	fcf40c23          	sb	a5,-40(s0)
  name[2] = '\0';
     1f8:	fc040d23          	sb	zero,-38(s0)
     1fc:	03000493          	li	s1,48
  for(i = 0; i < N; i++){
     200:	06400913          	li	s2,100
    name[1] = '0' + i;
     204:	fc940ca3          	sb	s1,-39(s0)
    fd = open(name, O_CREATE|O_RDWR);
     208:	20200593          	li	a1,514
     20c:	fd840513          	add	a0,s0,-40
     210:	00006097          	auipc	ra,0x6
     214:	a5c080e7          	jalr	-1444(ra) # 5c6c <open>
    close(fd);
     218:	00006097          	auipc	ra,0x6
     21c:	a3c080e7          	jalr	-1476(ra) # 5c54 <close>
  for(i = 0; i < N; i++){
     220:	2485                	addw	s1,s1,1
     222:	0ff4f493          	zext.b	s1,s1
     226:	fd249fe3          	bne	s1,s2,204 <createtest+0x20>
  name[0] = 'a';
     22a:	06100793          	li	a5,97
     22e:	fcf40c23          	sb	a5,-40(s0)
  name[2] = '\0';
     232:	fc040d23          	sb	zero,-38(s0)
     236:	03000493          	li	s1,48
  for(i = 0; i < N; i++){
     23a:	06400913          	li	s2,100
    name[1] = '0' + i;
     23e:	fc940ca3          	sb	s1,-39(s0)
    unlink(name);
     242:	fd840513          	add	a0,s0,-40
     246:	00006097          	auipc	ra,0x6
     24a:	a36080e7          	jalr	-1482(ra) # 5c7c <unlink>
  for(i = 0; i < N; i++){
     24e:	2485                	addw	s1,s1,1
     250:	0ff4f493          	zext.b	s1,s1
     254:	ff2495e3          	bne	s1,s2,23e <createtest+0x5a>
}
     258:	70a2                	ld	ra,40(sp)
     25a:	7402                	ld	s0,32(sp)
     25c:	64e2                	ld	s1,24(sp)
     25e:	6942                	ld	s2,16(sp)
     260:	6145                	add	sp,sp,48
     262:	8082                	ret

0000000000000264 <bigwrite>:
{
     264:	715d                	add	sp,sp,-80
     266:	e486                	sd	ra,72(sp)
     268:	e0a2                	sd	s0,64(sp)
     26a:	fc26                	sd	s1,56(sp)
     26c:	f84a                	sd	s2,48(sp)
     26e:	f44e                	sd	s3,40(sp)
     270:	f052                	sd	s4,32(sp)
     272:	ec56                	sd	s5,24(sp)
     274:	e85a                	sd	s6,16(sp)
     276:	e45e                	sd	s7,8(sp)
     278:	0880                	add	s0,sp,80
     27a:	8baa                	mv	s7,a0
  unlink("bigwrite");
     27c:	00006517          	auipc	a0,0x6
     280:	fac50513          	add	a0,a0,-84 # 6228 <malloc+0x1dc>
     284:	00006097          	auipc	ra,0x6
     288:	9f8080e7          	jalr	-1544(ra) # 5c7c <unlink>
  for(sz = 499; sz < (MAXOPBLOCKS+2)*BSIZE; sz += 471){
     28c:	1f300493          	li	s1,499
    fd = open("bigwrite", O_CREATE | O_RDWR);
     290:	00006a97          	auipc	s5,0x6
     294:	f98a8a93          	add	s5,s5,-104 # 6228 <malloc+0x1dc>
      int cc = write(fd, buf, sz);
     298:	0000da17          	auipc	s4,0xd
     29c:	9e0a0a13          	add	s4,s4,-1568 # cc78 <buf>
  for(sz = 499; sz < (MAXOPBLOCKS+2)*BSIZE; sz += 471){
     2a0:	6b0d                	lui	s6,0x3
     2a2:	1c9b0b13          	add	s6,s6,457 # 31c9 <fourteen+0x155>
    fd = open("bigwrite", O_CREATE | O_RDWR);
     2a6:	20200593          	li	a1,514
     2aa:	8556                	mv	a0,s5
     2ac:	00006097          	auipc	ra,0x6
     2b0:	9c0080e7          	jalr	-1600(ra) # 5c6c <open>
     2b4:	892a                	mv	s2,a0
    if(fd < 0){
     2b6:	04054d63          	bltz	a0,310 <bigwrite+0xac>
      int cc = write(fd, buf, sz);
     2ba:	8626                	mv	a2,s1
     2bc:	85d2                	mv	a1,s4
     2be:	00006097          	auipc	ra,0x6
     2c2:	98e080e7          	jalr	-1650(ra) # 5c4c <write>
     2c6:	89aa                	mv	s3,a0
      if(cc != sz){
     2c8:	06a49263          	bne	s1,a0,32c <bigwrite+0xc8>
      int cc = write(fd, buf, sz);
     2cc:	8626                	mv	a2,s1
     2ce:	85d2                	mv	a1,s4
     2d0:	854a                	mv	a0,s2
     2d2:	00006097          	auipc	ra,0x6
     2d6:	97a080e7          	jalr	-1670(ra) # 5c4c <write>
      if(cc != sz){
     2da:	04951a63          	bne	a0,s1,32e <bigwrite+0xca>
    close(fd);
     2de:	854a                	mv	a0,s2
     2e0:	00006097          	auipc	ra,0x6
     2e4:	974080e7          	jalr	-1676(ra) # 5c54 <close>
    unlink("bigwrite");
     2e8:	8556                	mv	a0,s5
     2ea:	00006097          	auipc	ra,0x6
     2ee:	992080e7          	jalr	-1646(ra) # 5c7c <unlink>
  for(sz = 499; sz < (MAXOPBLOCKS+2)*BSIZE; sz += 471){
     2f2:	1d74849b          	addw	s1,s1,471
     2f6:	fb6498e3          	bne	s1,s6,2a6 <bigwrite+0x42>
}
     2fa:	60a6                	ld	ra,72(sp)
     2fc:	6406                	ld	s0,64(sp)
     2fe:	74e2                	ld	s1,56(sp)
     300:	7942                	ld	s2,48(sp)
     302:	79a2                	ld	s3,40(sp)
     304:	7a02                	ld	s4,32(sp)
     306:	6ae2                	ld	s5,24(sp)
     308:	6b42                	ld	s6,16(sp)
     30a:	6ba2                	ld	s7,8(sp)
     30c:	6161                	add	sp,sp,80
     30e:	8082                	ret
      printf("%s: cannot create bigwrite\n", s);
     310:	85de                	mv	a1,s7
     312:	00006517          	auipc	a0,0x6
     316:	f2650513          	add	a0,a0,-218 # 6238 <malloc+0x1ec>
     31a:	00006097          	auipc	ra,0x6
     31e:	c7a080e7          	jalr	-902(ra) # 5f94 <printf>
      exit(1);
     322:	4505                	li	a0,1
     324:	00006097          	auipc	ra,0x6
     328:	908080e7          	jalr	-1784(ra) # 5c2c <exit>
      if(cc != sz){
     32c:	89a6                	mv	s3,s1
        printf("%s: write(%d) ret %d\n", s, sz, cc);
     32e:	86aa                	mv	a3,a0
     330:	864e                	mv	a2,s3
     332:	85de                	mv	a1,s7
     334:	00006517          	auipc	a0,0x6
     338:	f2450513          	add	a0,a0,-220 # 6258 <malloc+0x20c>
     33c:	00006097          	auipc	ra,0x6
     340:	c58080e7          	jalr	-936(ra) # 5f94 <printf>
        exit(1);
     344:	4505                	li	a0,1
     346:	00006097          	auipc	ra,0x6
     34a:	8e6080e7          	jalr	-1818(ra) # 5c2c <exit>

000000000000034e <badwrite>:
// file is deleted? if the kernel has this bug, it will panic: balloc:
// out of blocks. assumed_free may need to be raised to be more than
// the number of free blocks. this test takes a long time.
void
badwrite(char *s)
{
     34e:	7179                	add	sp,sp,-48
     350:	f406                	sd	ra,40(sp)
     352:	f022                	sd	s0,32(sp)
     354:	ec26                	sd	s1,24(sp)
     356:	e84a                	sd	s2,16(sp)
     358:	e44e                	sd	s3,8(sp)
     35a:	e052                	sd	s4,0(sp)
     35c:	1800                	add	s0,sp,48
  int assumed_free = 600;
  
  unlink("junk");
     35e:	00006517          	auipc	a0,0x6
     362:	f1250513          	add	a0,a0,-238 # 6270 <malloc+0x224>
     366:	00006097          	auipc	ra,0x6
     36a:	916080e7          	jalr	-1770(ra) # 5c7c <unlink>
     36e:	25800913          	li	s2,600
  for(int i = 0; i < assumed_free; i++){
    int fd = open("junk", O_CREATE|O_WRONLY);
     372:	00006997          	auipc	s3,0x6
     376:	efe98993          	add	s3,s3,-258 # 6270 <malloc+0x224>
    if(fd < 0){
      printf("open junk failed\n");
      exit(1);
    }
    write(fd, (char*)0xffffffffffL, 1);
     37a:	5a7d                	li	s4,-1
     37c:	018a5a13          	srl	s4,s4,0x18
    int fd = open("junk", O_CREATE|O_WRONLY);
     380:	20100593          	li	a1,513
     384:	854e                	mv	a0,s3
     386:	00006097          	auipc	ra,0x6
     38a:	8e6080e7          	jalr	-1818(ra) # 5c6c <open>
     38e:	84aa                	mv	s1,a0
    if(fd < 0){
     390:	06054b63          	bltz	a0,406 <badwrite+0xb8>
    write(fd, (char*)0xffffffffffL, 1);
     394:	4605                	li	a2,1
     396:	85d2                	mv	a1,s4
     398:	00006097          	auipc	ra,0x6
     39c:	8b4080e7          	jalr	-1868(ra) # 5c4c <write>
    close(fd);
     3a0:	8526                	mv	a0,s1
     3a2:	00006097          	auipc	ra,0x6
     3a6:	8b2080e7          	jalr	-1870(ra) # 5c54 <close>
    unlink("junk");
     3aa:	854e                	mv	a0,s3
     3ac:	00006097          	auipc	ra,0x6
     3b0:	8d0080e7          	jalr	-1840(ra) # 5c7c <unlink>
  for(int i = 0; i < assumed_free; i++){
     3b4:	397d                	addw	s2,s2,-1
     3b6:	fc0915e3          	bnez	s2,380 <badwrite+0x32>
  }

  int fd = open("junk", O_CREATE|O_WRONLY);
     3ba:	20100593          	li	a1,513
     3be:	00006517          	auipc	a0,0x6
     3c2:	eb250513          	add	a0,a0,-334 # 6270 <malloc+0x224>
     3c6:	00006097          	auipc	ra,0x6
     3ca:	8a6080e7          	jalr	-1882(ra) # 5c6c <open>
     3ce:	84aa                	mv	s1,a0
  if(fd < 0){
     3d0:	04054863          	bltz	a0,420 <badwrite+0xd2>
    printf("open junk failed\n");
    exit(1);
  }
  if(write(fd, "x", 1) != 1){
     3d4:	4605                	li	a2,1
     3d6:	00006597          	auipc	a1,0x6
     3da:	e2258593          	add	a1,a1,-478 # 61f8 <malloc+0x1ac>
     3de:	00006097          	auipc	ra,0x6
     3e2:	86e080e7          	jalr	-1938(ra) # 5c4c <write>
     3e6:	4785                	li	a5,1
     3e8:	04f50963          	beq	a0,a5,43a <badwrite+0xec>
    printf("write failed\n");
     3ec:	00006517          	auipc	a0,0x6
     3f0:	ea450513          	add	a0,a0,-348 # 6290 <malloc+0x244>
     3f4:	00006097          	auipc	ra,0x6
     3f8:	ba0080e7          	jalr	-1120(ra) # 5f94 <printf>
    exit(1);
     3fc:	4505                	li	a0,1
     3fe:	00006097          	auipc	ra,0x6
     402:	82e080e7          	jalr	-2002(ra) # 5c2c <exit>
      printf("open junk failed\n");
     406:	00006517          	auipc	a0,0x6
     40a:	e7250513          	add	a0,a0,-398 # 6278 <malloc+0x22c>
     40e:	00006097          	auipc	ra,0x6
     412:	b86080e7          	jalr	-1146(ra) # 5f94 <printf>
      exit(1);
     416:	4505                	li	a0,1
     418:	00006097          	auipc	ra,0x6
     41c:	814080e7          	jalr	-2028(ra) # 5c2c <exit>
    printf("open junk failed\n");
     420:	00006517          	auipc	a0,0x6
     424:	e5850513          	add	a0,a0,-424 # 6278 <malloc+0x22c>
     428:	00006097          	auipc	ra,0x6
     42c:	b6c080e7          	jalr	-1172(ra) # 5f94 <printf>
    exit(1);
     430:	4505                	li	a0,1
     432:	00005097          	auipc	ra,0x5
     436:	7fa080e7          	jalr	2042(ra) # 5c2c <exit>
  }
  close(fd);
     43a:	8526                	mv	a0,s1
     43c:	00006097          	auipc	ra,0x6
     440:	818080e7          	jalr	-2024(ra) # 5c54 <close>
  unlink("junk");
     444:	00006517          	auipc	a0,0x6
     448:	e2c50513          	add	a0,a0,-468 # 6270 <malloc+0x224>
     44c:	00006097          	auipc	ra,0x6
     450:	830080e7          	jalr	-2000(ra) # 5c7c <unlink>

  exit(0);
     454:	4501                	li	a0,0
     456:	00005097          	auipc	ra,0x5
     45a:	7d6080e7          	jalr	2006(ra) # 5c2c <exit>

000000000000045e <outofinodes>:
  }
}

void
outofinodes(char *s)
{
     45e:	715d                	add	sp,sp,-80
     460:	e486                	sd	ra,72(sp)
     462:	e0a2                	sd	s0,64(sp)
     464:	fc26                	sd	s1,56(sp)
     466:	f84a                	sd	s2,48(sp)
     468:	f44e                	sd	s3,40(sp)
     46a:	0880                	add	s0,sp,80
  int nzz = 32*32;
  for(int i = 0; i < nzz; i++){
     46c:	4481                	li	s1,0
    char name[32];
    name[0] = 'z';
     46e:	07a00913          	li	s2,122
  for(int i = 0; i < nzz; i++){
     472:	40000993          	li	s3,1024
    name[0] = 'z';
     476:	fb240823          	sb	s2,-80(s0)
    name[1] = 'z';
     47a:	fb2408a3          	sb	s2,-79(s0)
    name[2] = '0' + (i / 32);
     47e:	41f4d71b          	sraw	a4,s1,0x1f
     482:	01b7571b          	srlw	a4,a4,0x1b
     486:	009707bb          	addw	a5,a4,s1
     48a:	4057d69b          	sraw	a3,a5,0x5
     48e:	0306869b          	addw	a3,a3,48
     492:	fad40923          	sb	a3,-78(s0)
    name[3] = '0' + (i % 32);
     496:	8bfd                	and	a5,a5,31
     498:	9f99                	subw	a5,a5,a4
     49a:	0307879b          	addw	a5,a5,48
     49e:	faf409a3          	sb	a5,-77(s0)
    name[4] = '\0';
     4a2:	fa040a23          	sb	zero,-76(s0)
    unlink(name);
     4a6:	fb040513          	add	a0,s0,-80
     4aa:	00005097          	auipc	ra,0x5
     4ae:	7d2080e7          	jalr	2002(ra) # 5c7c <unlink>
    int fd = open(name, O_CREATE|O_RDWR|O_TRUNC);
     4b2:	60200593          	li	a1,1538
     4b6:	fb040513          	add	a0,s0,-80
     4ba:	00005097          	auipc	ra,0x5
     4be:	7b2080e7          	jalr	1970(ra) # 5c6c <open>
    if(fd < 0){
     4c2:	00054963          	bltz	a0,4d4 <outofinodes+0x76>
      // failure is eventually expected.
      break;
    }
    close(fd);
     4c6:	00005097          	auipc	ra,0x5
     4ca:	78e080e7          	jalr	1934(ra) # 5c54 <close>
  for(int i = 0; i < nzz; i++){
     4ce:	2485                	addw	s1,s1,1
     4d0:	fb3493e3          	bne	s1,s3,476 <outofinodes+0x18>
     4d4:	4481                	li	s1,0
  }

  for(int i = 0; i < nzz; i++){
    char name[32];
    name[0] = 'z';
     4d6:	07a00913          	li	s2,122
  for(int i = 0; i < nzz; i++){
     4da:	40000993          	li	s3,1024
    name[0] = 'z';
     4de:	fb240823          	sb	s2,-80(s0)
    name[1] = 'z';
     4e2:	fb2408a3          	sb	s2,-79(s0)
    name[2] = '0' + (i / 32);
     4e6:	41f4d71b          	sraw	a4,s1,0x1f
     4ea:	01b7571b          	srlw	a4,a4,0x1b
     4ee:	009707bb          	addw	a5,a4,s1
     4f2:	4057d69b          	sraw	a3,a5,0x5
     4f6:	0306869b          	addw	a3,a3,48
     4fa:	fad40923          	sb	a3,-78(s0)
    name[3] = '0' + (i % 32);
     4fe:	8bfd                	and	a5,a5,31
     500:	9f99                	subw	a5,a5,a4
     502:	0307879b          	addw	a5,a5,48
     506:	faf409a3          	sb	a5,-77(s0)
    name[4] = '\0';
     50a:	fa040a23          	sb	zero,-76(s0)
    unlink(name);
     50e:	fb040513          	add	a0,s0,-80
     512:	00005097          	auipc	ra,0x5
     516:	76a080e7          	jalr	1898(ra) # 5c7c <unlink>
  for(int i = 0; i < nzz; i++){
     51a:	2485                	addw	s1,s1,1
     51c:	fd3491e3          	bne	s1,s3,4de <outofinodes+0x80>
  }
}
     520:	60a6                	ld	ra,72(sp)
     522:	6406                	ld	s0,64(sp)
     524:	74e2                	ld	s1,56(sp)
     526:	7942                	ld	s2,48(sp)
     528:	79a2                	ld	s3,40(sp)
     52a:	6161                	add	sp,sp,80
     52c:	8082                	ret

000000000000052e <copyin>:
{
     52e:	715d                	add	sp,sp,-80
     530:	e486                	sd	ra,72(sp)
     532:	e0a2                	sd	s0,64(sp)
     534:	fc26                	sd	s1,56(sp)
     536:	f84a                	sd	s2,48(sp)
     538:	f44e                	sd	s3,40(sp)
     53a:	f052                	sd	s4,32(sp)
     53c:	0880                	add	s0,sp,80
  uint64 addrs[] = { 0x80000000LL, 0xffffffffffffffff };
     53e:	4785                	li	a5,1
     540:	07fe                	sll	a5,a5,0x1f
     542:	fcf43023          	sd	a5,-64(s0)
     546:	57fd                	li	a5,-1
     548:	fcf43423          	sd	a5,-56(s0)
  for(int ai = 0; ai < 2; ai++){
     54c:	fc040913          	add	s2,s0,-64
    int fd = open("copyin1", O_CREATE|O_WRONLY);
     550:	00006a17          	auipc	s4,0x6
     554:	d50a0a13          	add	s4,s4,-688 # 62a0 <malloc+0x254>
    uint64 addr = addrs[ai];
     558:	00093983          	ld	s3,0(s2)
    int fd = open("copyin1", O_CREATE|O_WRONLY);
     55c:	20100593          	li	a1,513
     560:	8552                	mv	a0,s4
     562:	00005097          	auipc	ra,0x5
     566:	70a080e7          	jalr	1802(ra) # 5c6c <open>
     56a:	84aa                	mv	s1,a0
    if(fd < 0){
     56c:	08054863          	bltz	a0,5fc <copyin+0xce>
    int n = write(fd, (void*)addr, 8192);
     570:	6609                	lui	a2,0x2
     572:	85ce                	mv	a1,s3
     574:	00005097          	auipc	ra,0x5
     578:	6d8080e7          	jalr	1752(ra) # 5c4c <write>
    if(n >= 0){
     57c:	08055d63          	bgez	a0,616 <copyin+0xe8>
    close(fd);
     580:	8526                	mv	a0,s1
     582:	00005097          	auipc	ra,0x5
     586:	6d2080e7          	jalr	1746(ra) # 5c54 <close>
    unlink("copyin1");
     58a:	8552                	mv	a0,s4
     58c:	00005097          	auipc	ra,0x5
     590:	6f0080e7          	jalr	1776(ra) # 5c7c <unlink>
    n = write(1, (char*)addr, 8192);
     594:	6609                	lui	a2,0x2
     596:	85ce                	mv	a1,s3
     598:	4505                	li	a0,1
     59a:	00005097          	auipc	ra,0x5
     59e:	6b2080e7          	jalr	1714(ra) # 5c4c <write>
    if(n > 0){
     5a2:	08a04963          	bgtz	a0,634 <copyin+0x106>
    if(pipe(fds) < 0){
     5a6:	fb840513          	add	a0,s0,-72
     5aa:	00005097          	auipc	ra,0x5
     5ae:	692080e7          	jalr	1682(ra) # 5c3c <pipe>
     5b2:	0a054063          	bltz	a0,652 <copyin+0x124>
    n = write(fds[1], (char*)addr, 8192);
     5b6:	6609                	lui	a2,0x2
     5b8:	85ce                	mv	a1,s3
     5ba:	fbc42503          	lw	a0,-68(s0)
     5be:	00005097          	auipc	ra,0x5
     5c2:	68e080e7          	jalr	1678(ra) # 5c4c <write>
    if(n > 0){
     5c6:	0aa04363          	bgtz	a0,66c <copyin+0x13e>
    close(fds[0]);
     5ca:	fb842503          	lw	a0,-72(s0)
     5ce:	00005097          	auipc	ra,0x5
     5d2:	686080e7          	jalr	1670(ra) # 5c54 <close>
    close(fds[1]);
     5d6:	fbc42503          	lw	a0,-68(s0)
     5da:	00005097          	auipc	ra,0x5
     5de:	67a080e7          	jalr	1658(ra) # 5c54 <close>
  for(int ai = 0; ai < 2; ai++){
     5e2:	0921                	add	s2,s2,8
     5e4:	fd040793          	add	a5,s0,-48
     5e8:	f6f918e3          	bne	s2,a5,558 <copyin+0x2a>
}
     5ec:	60a6                	ld	ra,72(sp)
     5ee:	6406                	ld	s0,64(sp)
     5f0:	74e2                	ld	s1,56(sp)
     5f2:	7942                	ld	s2,48(sp)
     5f4:	79a2                	ld	s3,40(sp)
     5f6:	7a02                	ld	s4,32(sp)
     5f8:	6161                	add	sp,sp,80
     5fa:	8082                	ret
      printf("open(copyin1) failed\n");
     5fc:	00006517          	auipc	a0,0x6
     600:	cac50513          	add	a0,a0,-852 # 62a8 <malloc+0x25c>
     604:	00006097          	auipc	ra,0x6
     608:	990080e7          	jalr	-1648(ra) # 5f94 <printf>
      exit(1);
     60c:	4505                	li	a0,1
     60e:	00005097          	auipc	ra,0x5
     612:	61e080e7          	jalr	1566(ra) # 5c2c <exit>
      printf("write(fd, %p, 8192) returned %d, not -1\n", addr, n);
     616:	862a                	mv	a2,a0
     618:	85ce                	mv	a1,s3
     61a:	00006517          	auipc	a0,0x6
     61e:	ca650513          	add	a0,a0,-858 # 62c0 <malloc+0x274>
     622:	00006097          	auipc	ra,0x6
     626:	972080e7          	jalr	-1678(ra) # 5f94 <printf>
      exit(1);
     62a:	4505                	li	a0,1
     62c:	00005097          	auipc	ra,0x5
     630:	600080e7          	jalr	1536(ra) # 5c2c <exit>
      printf("write(1, %p, 8192) returned %d, not -1 or 0\n", addr, n);
     634:	862a                	mv	a2,a0
     636:	85ce                	mv	a1,s3
     638:	00006517          	auipc	a0,0x6
     63c:	cb850513          	add	a0,a0,-840 # 62f0 <malloc+0x2a4>
     640:	00006097          	auipc	ra,0x6
     644:	954080e7          	jalr	-1708(ra) # 5f94 <printf>
      exit(1);
     648:	4505                	li	a0,1
     64a:	00005097          	auipc	ra,0x5
     64e:	5e2080e7          	jalr	1506(ra) # 5c2c <exit>
      printf("pipe() failed\n");
     652:	00006517          	auipc	a0,0x6
     656:	cce50513          	add	a0,a0,-818 # 6320 <malloc+0x2d4>
     65a:	00006097          	auipc	ra,0x6
     65e:	93a080e7          	jalr	-1734(ra) # 5f94 <printf>
      exit(1);
     662:	4505                	li	a0,1
     664:	00005097          	auipc	ra,0x5
     668:	5c8080e7          	jalr	1480(ra) # 5c2c <exit>
      printf("write(pipe, %p, 8192) returned %d, not -1 or 0\n", addr, n);
     66c:	862a                	mv	a2,a0
     66e:	85ce                	mv	a1,s3
     670:	00006517          	auipc	a0,0x6
     674:	cc050513          	add	a0,a0,-832 # 6330 <malloc+0x2e4>
     678:	00006097          	auipc	ra,0x6
     67c:	91c080e7          	jalr	-1764(ra) # 5f94 <printf>
      exit(1);
     680:	4505                	li	a0,1
     682:	00005097          	auipc	ra,0x5
     686:	5aa080e7          	jalr	1450(ra) # 5c2c <exit>

000000000000068a <copyout>:
{
     68a:	711d                	add	sp,sp,-96
     68c:	ec86                	sd	ra,88(sp)
     68e:	e8a2                	sd	s0,80(sp)
     690:	e4a6                	sd	s1,72(sp)
     692:	e0ca                	sd	s2,64(sp)
     694:	fc4e                	sd	s3,56(sp)
     696:	f852                	sd	s4,48(sp)
     698:	f456                	sd	s5,40(sp)
     69a:	f05a                	sd	s6,32(sp)
     69c:	1080                	add	s0,sp,96
  uint64 addrs[] = { 0LL, 0x80000000LL, 0xffffffffffffffff };
     69e:	fa043423          	sd	zero,-88(s0)
     6a2:	4785                	li	a5,1
     6a4:	07fe                	sll	a5,a5,0x1f
     6a6:	faf43823          	sd	a5,-80(s0)
  for(int ai = 0; ai < 2; ai++){
     6aa:	fa840913          	add	s2,s0,-88
     6ae:	fb840b13          	add	s6,s0,-72
    int fd = open("README", 0);
     6b2:	00006a17          	auipc	s4,0x6
     6b6:	caea0a13          	add	s4,s4,-850 # 6360 <malloc+0x314>
    n = write(fds[1], "x", 1);
     6ba:	00006a97          	auipc	s5,0x6
     6be:	b3ea8a93          	add	s5,s5,-1218 # 61f8 <malloc+0x1ac>
    uint64 addr = addrs[ai];
     6c2:	00093983          	ld	s3,0(s2)
    int fd = open("README", 0);
     6c6:	4581                	li	a1,0
     6c8:	8552                	mv	a0,s4
     6ca:	00005097          	auipc	ra,0x5
     6ce:	5a2080e7          	jalr	1442(ra) # 5c6c <open>
     6d2:	84aa                	mv	s1,a0
    if(fd < 0){
     6d4:	08054563          	bltz	a0,75e <copyout+0xd4>
    int n = read(fd, (void*)addr, 8192);
     6d8:	6609                	lui	a2,0x2
     6da:	85ce                	mv	a1,s3
     6dc:	00005097          	auipc	ra,0x5
     6e0:	568080e7          	jalr	1384(ra) # 5c44 <read>
    if(n > 0){
     6e4:	08a04a63          	bgtz	a0,778 <copyout+0xee>
    close(fd);
     6e8:	8526                	mv	a0,s1
     6ea:	00005097          	auipc	ra,0x5
     6ee:	56a080e7          	jalr	1386(ra) # 5c54 <close>
    if(pipe(fds) < 0){
     6f2:	fa040513          	add	a0,s0,-96
     6f6:	00005097          	auipc	ra,0x5
     6fa:	546080e7          	jalr	1350(ra) # 5c3c <pipe>
     6fe:	08054c63          	bltz	a0,796 <copyout+0x10c>
    n = write(fds[1], "x", 1);
     702:	4605                	li	a2,1
     704:	85d6                	mv	a1,s5
     706:	fa442503          	lw	a0,-92(s0)
     70a:	00005097          	auipc	ra,0x5
     70e:	542080e7          	jalr	1346(ra) # 5c4c <write>
    if(n != 1){
     712:	4785                	li	a5,1
     714:	08f51e63          	bne	a0,a5,7b0 <copyout+0x126>
    n = read(fds[0], (void*)addr, 8192);
     718:	6609                	lui	a2,0x2
     71a:	85ce                	mv	a1,s3
     71c:	fa042503          	lw	a0,-96(s0)
     720:	00005097          	auipc	ra,0x5
     724:	524080e7          	jalr	1316(ra) # 5c44 <read>
    if(n > 0){
     728:	0aa04163          	bgtz	a0,7ca <copyout+0x140>
    close(fds[0]);
     72c:	fa042503          	lw	a0,-96(s0)
     730:	00005097          	auipc	ra,0x5
     734:	524080e7          	jalr	1316(ra) # 5c54 <close>
    close(fds[1]);
     738:	fa442503          	lw	a0,-92(s0)
     73c:	00005097          	auipc	ra,0x5
     740:	518080e7          	jalr	1304(ra) # 5c54 <close>
  for(int ai = 0; ai < 2; ai++){
     744:	0921                	add	s2,s2,8
     746:	f7691ee3          	bne	s2,s6,6c2 <copyout+0x38>
}
     74a:	60e6                	ld	ra,88(sp)
     74c:	6446                	ld	s0,80(sp)
     74e:	64a6                	ld	s1,72(sp)
     750:	6906                	ld	s2,64(sp)
     752:	79e2                	ld	s3,56(sp)
     754:	7a42                	ld	s4,48(sp)
     756:	7aa2                	ld	s5,40(sp)
     758:	7b02                	ld	s6,32(sp)
     75a:	6125                	add	sp,sp,96
     75c:	8082                	ret
      printf("open(README) failed\n");
     75e:	00006517          	auipc	a0,0x6
     762:	c0a50513          	add	a0,a0,-1014 # 6368 <malloc+0x31c>
     766:	00006097          	auipc	ra,0x6
     76a:	82e080e7          	jalr	-2002(ra) # 5f94 <printf>
      exit(1);
     76e:	4505                	li	a0,1
     770:	00005097          	auipc	ra,0x5
     774:	4bc080e7          	jalr	1212(ra) # 5c2c <exit>
      printf("read(fd, %p, 8192) returned %d, not -1 or 0\n", addr, n);
     778:	862a                	mv	a2,a0
     77a:	85ce                	mv	a1,s3
     77c:	00006517          	auipc	a0,0x6
     780:	c0450513          	add	a0,a0,-1020 # 6380 <malloc+0x334>
     784:	00006097          	auipc	ra,0x6
     788:	810080e7          	jalr	-2032(ra) # 5f94 <printf>
      exit(1);
     78c:	4505                	li	a0,1
     78e:	00005097          	auipc	ra,0x5
     792:	49e080e7          	jalr	1182(ra) # 5c2c <exit>
      printf("pipe() failed\n");
     796:	00006517          	auipc	a0,0x6
     79a:	b8a50513          	add	a0,a0,-1142 # 6320 <malloc+0x2d4>
     79e:	00005097          	auipc	ra,0x5
     7a2:	7f6080e7          	jalr	2038(ra) # 5f94 <printf>
      exit(1);
     7a6:	4505                	li	a0,1
     7a8:	00005097          	auipc	ra,0x5
     7ac:	484080e7          	jalr	1156(ra) # 5c2c <exit>
      printf("pipe write failed\n");
     7b0:	00006517          	auipc	a0,0x6
     7b4:	c0050513          	add	a0,a0,-1024 # 63b0 <malloc+0x364>
     7b8:	00005097          	auipc	ra,0x5
     7bc:	7dc080e7          	jalr	2012(ra) # 5f94 <printf>
      exit(1);
     7c0:	4505                	li	a0,1
     7c2:	00005097          	auipc	ra,0x5
     7c6:	46a080e7          	jalr	1130(ra) # 5c2c <exit>
      printf("read(pipe, %p, 8192) returned %d, not -1 or 0\n", addr, n);
     7ca:	862a                	mv	a2,a0
     7cc:	85ce                	mv	a1,s3
     7ce:	00006517          	auipc	a0,0x6
     7d2:	bfa50513          	add	a0,a0,-1030 # 63c8 <malloc+0x37c>
     7d6:	00005097          	auipc	ra,0x5
     7da:	7be080e7          	jalr	1982(ra) # 5f94 <printf>
      exit(1);
     7de:	4505                	li	a0,1
     7e0:	00005097          	auipc	ra,0x5
     7e4:	44c080e7          	jalr	1100(ra) # 5c2c <exit>

00000000000007e8 <truncate1>:
{
     7e8:	711d                	add	sp,sp,-96
     7ea:	ec86                	sd	ra,88(sp)
     7ec:	e8a2                	sd	s0,80(sp)
     7ee:	e4a6                	sd	s1,72(sp)
     7f0:	e0ca                	sd	s2,64(sp)
     7f2:	fc4e                	sd	s3,56(sp)
     7f4:	f852                	sd	s4,48(sp)
     7f6:	f456                	sd	s5,40(sp)
     7f8:	1080                	add	s0,sp,96
     7fa:	8aaa                	mv	s5,a0
  unlink("truncfile");
     7fc:	00006517          	auipc	a0,0x6
     800:	9e450513          	add	a0,a0,-1564 # 61e0 <malloc+0x194>
     804:	00005097          	auipc	ra,0x5
     808:	478080e7          	jalr	1144(ra) # 5c7c <unlink>
  int fd1 = open("truncfile", O_CREATE|O_WRONLY|O_TRUNC);
     80c:	60100593          	li	a1,1537
     810:	00006517          	auipc	a0,0x6
     814:	9d050513          	add	a0,a0,-1584 # 61e0 <malloc+0x194>
     818:	00005097          	auipc	ra,0x5
     81c:	454080e7          	jalr	1108(ra) # 5c6c <open>
     820:	84aa                	mv	s1,a0
  write(fd1, "abcd", 4);
     822:	4611                	li	a2,4
     824:	00006597          	auipc	a1,0x6
     828:	9cc58593          	add	a1,a1,-1588 # 61f0 <malloc+0x1a4>
     82c:	00005097          	auipc	ra,0x5
     830:	420080e7          	jalr	1056(ra) # 5c4c <write>
  close(fd1);
     834:	8526                	mv	a0,s1
     836:	00005097          	auipc	ra,0x5
     83a:	41e080e7          	jalr	1054(ra) # 5c54 <close>
  int fd2 = open("truncfile", O_RDONLY);
     83e:	4581                	li	a1,0
     840:	00006517          	auipc	a0,0x6
     844:	9a050513          	add	a0,a0,-1632 # 61e0 <malloc+0x194>
     848:	00005097          	auipc	ra,0x5
     84c:	424080e7          	jalr	1060(ra) # 5c6c <open>
     850:	84aa                	mv	s1,a0
  int n = read(fd2, buf, sizeof(buf));
     852:	02000613          	li	a2,32
     856:	fa040593          	add	a1,s0,-96
     85a:	00005097          	auipc	ra,0x5
     85e:	3ea080e7          	jalr	1002(ra) # 5c44 <read>
  if(n != 4){
     862:	4791                	li	a5,4
     864:	0cf51e63          	bne	a0,a5,940 <truncate1+0x158>
  fd1 = open("truncfile", O_WRONLY|O_TRUNC);
     868:	40100593          	li	a1,1025
     86c:	00006517          	auipc	a0,0x6
     870:	97450513          	add	a0,a0,-1676 # 61e0 <malloc+0x194>
     874:	00005097          	auipc	ra,0x5
     878:	3f8080e7          	jalr	1016(ra) # 5c6c <open>
     87c:	89aa                	mv	s3,a0
  int fd3 = open("truncfile", O_RDONLY);
     87e:	4581                	li	a1,0
     880:	00006517          	auipc	a0,0x6
     884:	96050513          	add	a0,a0,-1696 # 61e0 <malloc+0x194>
     888:	00005097          	auipc	ra,0x5
     88c:	3e4080e7          	jalr	996(ra) # 5c6c <open>
     890:	892a                	mv	s2,a0
  n = read(fd3, buf, sizeof(buf));
     892:	02000613          	li	a2,32
     896:	fa040593          	add	a1,s0,-96
     89a:	00005097          	auipc	ra,0x5
     89e:	3aa080e7          	jalr	938(ra) # 5c44 <read>
     8a2:	8a2a                	mv	s4,a0
  if(n != 0){
     8a4:	ed4d                	bnez	a0,95e <truncate1+0x176>
  n = read(fd2, buf, sizeof(buf));
     8a6:	02000613          	li	a2,32
     8aa:	fa040593          	add	a1,s0,-96
     8ae:	8526                	mv	a0,s1
     8b0:	00005097          	auipc	ra,0x5
     8b4:	394080e7          	jalr	916(ra) # 5c44 <read>
     8b8:	8a2a                	mv	s4,a0
  if(n != 0){
     8ba:	e971                	bnez	a0,98e <truncate1+0x1a6>
  write(fd1, "abcdef", 6);
     8bc:	4619                	li	a2,6
     8be:	00006597          	auipc	a1,0x6
     8c2:	b9a58593          	add	a1,a1,-1126 # 6458 <malloc+0x40c>
     8c6:	854e                	mv	a0,s3
     8c8:	00005097          	auipc	ra,0x5
     8cc:	384080e7          	jalr	900(ra) # 5c4c <write>
  n = read(fd3, buf, sizeof(buf));
     8d0:	02000613          	li	a2,32
     8d4:	fa040593          	add	a1,s0,-96
     8d8:	854a                	mv	a0,s2
     8da:	00005097          	auipc	ra,0x5
     8de:	36a080e7          	jalr	874(ra) # 5c44 <read>
  if(n != 6){
     8e2:	4799                	li	a5,6
     8e4:	0cf51d63          	bne	a0,a5,9be <truncate1+0x1d6>
  n = read(fd2, buf, sizeof(buf));
     8e8:	02000613          	li	a2,32
     8ec:	fa040593          	add	a1,s0,-96
     8f0:	8526                	mv	a0,s1
     8f2:	00005097          	auipc	ra,0x5
     8f6:	352080e7          	jalr	850(ra) # 5c44 <read>
  if(n != 2){
     8fa:	4789                	li	a5,2
     8fc:	0ef51063          	bne	a0,a5,9dc <truncate1+0x1f4>
  unlink("truncfile");
     900:	00006517          	auipc	a0,0x6
     904:	8e050513          	add	a0,a0,-1824 # 61e0 <malloc+0x194>
     908:	00005097          	auipc	ra,0x5
     90c:	374080e7          	jalr	884(ra) # 5c7c <unlink>
  close(fd1);
     910:	854e                	mv	a0,s3
     912:	00005097          	auipc	ra,0x5
     916:	342080e7          	jalr	834(ra) # 5c54 <close>
  close(fd2);
     91a:	8526                	mv	a0,s1
     91c:	00005097          	auipc	ra,0x5
     920:	338080e7          	jalr	824(ra) # 5c54 <close>
  close(fd3);
     924:	854a                	mv	a0,s2
     926:	00005097          	auipc	ra,0x5
     92a:	32e080e7          	jalr	814(ra) # 5c54 <close>
}
     92e:	60e6                	ld	ra,88(sp)
     930:	6446                	ld	s0,80(sp)
     932:	64a6                	ld	s1,72(sp)
     934:	6906                	ld	s2,64(sp)
     936:	79e2                	ld	s3,56(sp)
     938:	7a42                	ld	s4,48(sp)
     93a:	7aa2                	ld	s5,40(sp)
     93c:	6125                	add	sp,sp,96
     93e:	8082                	ret
    printf("%s: read %d bytes, wanted 4\n", s, n);
     940:	862a                	mv	a2,a0
     942:	85d6                	mv	a1,s5
     944:	00006517          	auipc	a0,0x6
     948:	ab450513          	add	a0,a0,-1356 # 63f8 <malloc+0x3ac>
     94c:	00005097          	auipc	ra,0x5
     950:	648080e7          	jalr	1608(ra) # 5f94 <printf>
    exit(1);
     954:	4505                	li	a0,1
     956:	00005097          	auipc	ra,0x5
     95a:	2d6080e7          	jalr	726(ra) # 5c2c <exit>
    printf("aaa fd3=%d\n", fd3);
     95e:	85ca                	mv	a1,s2
     960:	00006517          	auipc	a0,0x6
     964:	ab850513          	add	a0,a0,-1352 # 6418 <malloc+0x3cc>
     968:	00005097          	auipc	ra,0x5
     96c:	62c080e7          	jalr	1580(ra) # 5f94 <printf>
    printf("%s: read %d bytes, wanted 0\n", s, n);
     970:	8652                	mv	a2,s4
     972:	85d6                	mv	a1,s5
     974:	00006517          	auipc	a0,0x6
     978:	ab450513          	add	a0,a0,-1356 # 6428 <malloc+0x3dc>
     97c:	00005097          	auipc	ra,0x5
     980:	618080e7          	jalr	1560(ra) # 5f94 <printf>
    exit(1);
     984:	4505                	li	a0,1
     986:	00005097          	auipc	ra,0x5
     98a:	2a6080e7          	jalr	678(ra) # 5c2c <exit>
    printf("bbb fd2=%d\n", fd2);
     98e:	85a6                	mv	a1,s1
     990:	00006517          	auipc	a0,0x6
     994:	ab850513          	add	a0,a0,-1352 # 6448 <malloc+0x3fc>
     998:	00005097          	auipc	ra,0x5
     99c:	5fc080e7          	jalr	1532(ra) # 5f94 <printf>
    printf("%s: read %d bytes, wanted 0\n", s, n);
     9a0:	8652                	mv	a2,s4
     9a2:	85d6                	mv	a1,s5
     9a4:	00006517          	auipc	a0,0x6
     9a8:	a8450513          	add	a0,a0,-1404 # 6428 <malloc+0x3dc>
     9ac:	00005097          	auipc	ra,0x5
     9b0:	5e8080e7          	jalr	1512(ra) # 5f94 <printf>
    exit(1);
     9b4:	4505                	li	a0,1
     9b6:	00005097          	auipc	ra,0x5
     9ba:	276080e7          	jalr	630(ra) # 5c2c <exit>
    printf("%s: read %d bytes, wanted 6\n", s, n);
     9be:	862a                	mv	a2,a0
     9c0:	85d6                	mv	a1,s5
     9c2:	00006517          	auipc	a0,0x6
     9c6:	a9e50513          	add	a0,a0,-1378 # 6460 <malloc+0x414>
     9ca:	00005097          	auipc	ra,0x5
     9ce:	5ca080e7          	jalr	1482(ra) # 5f94 <printf>
    exit(1);
     9d2:	4505                	li	a0,1
     9d4:	00005097          	auipc	ra,0x5
     9d8:	258080e7          	jalr	600(ra) # 5c2c <exit>
    printf("%s: read %d bytes, wanted 2\n", s, n);
     9dc:	862a                	mv	a2,a0
     9de:	85d6                	mv	a1,s5
     9e0:	00006517          	auipc	a0,0x6
     9e4:	aa050513          	add	a0,a0,-1376 # 6480 <malloc+0x434>
     9e8:	00005097          	auipc	ra,0x5
     9ec:	5ac080e7          	jalr	1452(ra) # 5f94 <printf>
    exit(1);
     9f0:	4505                	li	a0,1
     9f2:	00005097          	auipc	ra,0x5
     9f6:	23a080e7          	jalr	570(ra) # 5c2c <exit>

00000000000009fa <writetest>:
{
     9fa:	7139                	add	sp,sp,-64
     9fc:	fc06                	sd	ra,56(sp)
     9fe:	f822                	sd	s0,48(sp)
     a00:	f426                	sd	s1,40(sp)
     a02:	f04a                	sd	s2,32(sp)
     a04:	ec4e                	sd	s3,24(sp)
     a06:	e852                	sd	s4,16(sp)
     a08:	e456                	sd	s5,8(sp)
     a0a:	e05a                	sd	s6,0(sp)
     a0c:	0080                	add	s0,sp,64
     a0e:	8b2a                	mv	s6,a0
  fd = open("small", O_CREATE|O_RDWR);
     a10:	20200593          	li	a1,514
     a14:	00006517          	auipc	a0,0x6
     a18:	a8c50513          	add	a0,a0,-1396 # 64a0 <malloc+0x454>
     a1c:	00005097          	auipc	ra,0x5
     a20:	250080e7          	jalr	592(ra) # 5c6c <open>
  if(fd < 0){
     a24:	0a054d63          	bltz	a0,ade <writetest+0xe4>
     a28:	892a                	mv	s2,a0
     a2a:	4481                	li	s1,0
    if(write(fd, "aaaaaaaaaa", SZ) != SZ){
     a2c:	00006997          	auipc	s3,0x6
     a30:	a9c98993          	add	s3,s3,-1380 # 64c8 <malloc+0x47c>
    if(write(fd, "bbbbbbbbbb", SZ) != SZ){
     a34:	00006a97          	auipc	s5,0x6
     a38:	acca8a93          	add	s5,s5,-1332 # 6500 <malloc+0x4b4>
  for(i = 0; i < N; i++){
     a3c:	06400a13          	li	s4,100
    if(write(fd, "aaaaaaaaaa", SZ) != SZ){
     a40:	4629                	li	a2,10
     a42:	85ce                	mv	a1,s3
     a44:	854a                	mv	a0,s2
     a46:	00005097          	auipc	ra,0x5
     a4a:	206080e7          	jalr	518(ra) # 5c4c <write>
     a4e:	47a9                	li	a5,10
     a50:	0af51563          	bne	a0,a5,afa <writetest+0x100>
    if(write(fd, "bbbbbbbbbb", SZ) != SZ){
     a54:	4629                	li	a2,10
     a56:	85d6                	mv	a1,s5
     a58:	854a                	mv	a0,s2
     a5a:	00005097          	auipc	ra,0x5
     a5e:	1f2080e7          	jalr	498(ra) # 5c4c <write>
     a62:	47a9                	li	a5,10
     a64:	0af51a63          	bne	a0,a5,b18 <writetest+0x11e>
  for(i = 0; i < N; i++){
     a68:	2485                	addw	s1,s1,1
     a6a:	fd449be3          	bne	s1,s4,a40 <writetest+0x46>
  close(fd);
     a6e:	854a                	mv	a0,s2
     a70:	00005097          	auipc	ra,0x5
     a74:	1e4080e7          	jalr	484(ra) # 5c54 <close>
  fd = open("small", O_RDONLY);
     a78:	4581                	li	a1,0
     a7a:	00006517          	auipc	a0,0x6
     a7e:	a2650513          	add	a0,a0,-1498 # 64a0 <malloc+0x454>
     a82:	00005097          	auipc	ra,0x5
     a86:	1ea080e7          	jalr	490(ra) # 5c6c <open>
     a8a:	84aa                	mv	s1,a0
  if(fd < 0){
     a8c:	0a054563          	bltz	a0,b36 <writetest+0x13c>
  i = read(fd, buf, N*SZ*2);
     a90:	7d000613          	li	a2,2000
     a94:	0000c597          	auipc	a1,0xc
     a98:	1e458593          	add	a1,a1,484 # cc78 <buf>
     a9c:	00005097          	auipc	ra,0x5
     aa0:	1a8080e7          	jalr	424(ra) # 5c44 <read>
  if(i != N*SZ*2){
     aa4:	7d000793          	li	a5,2000
     aa8:	0af51563          	bne	a0,a5,b52 <writetest+0x158>
  close(fd);
     aac:	8526                	mv	a0,s1
     aae:	00005097          	auipc	ra,0x5
     ab2:	1a6080e7          	jalr	422(ra) # 5c54 <close>
  if(unlink("small") < 0){
     ab6:	00006517          	auipc	a0,0x6
     aba:	9ea50513          	add	a0,a0,-1558 # 64a0 <malloc+0x454>
     abe:	00005097          	auipc	ra,0x5
     ac2:	1be080e7          	jalr	446(ra) # 5c7c <unlink>
     ac6:	0a054463          	bltz	a0,b6e <writetest+0x174>
}
     aca:	70e2                	ld	ra,56(sp)
     acc:	7442                	ld	s0,48(sp)
     ace:	74a2                	ld	s1,40(sp)
     ad0:	7902                	ld	s2,32(sp)
     ad2:	69e2                	ld	s3,24(sp)
     ad4:	6a42                	ld	s4,16(sp)
     ad6:	6aa2                	ld	s5,8(sp)
     ad8:	6b02                	ld	s6,0(sp)
     ada:	6121                	add	sp,sp,64
     adc:	8082                	ret
    printf("%s: error: creat small failed!\n", s);
     ade:	85da                	mv	a1,s6
     ae0:	00006517          	auipc	a0,0x6
     ae4:	9c850513          	add	a0,a0,-1592 # 64a8 <malloc+0x45c>
     ae8:	00005097          	auipc	ra,0x5
     aec:	4ac080e7          	jalr	1196(ra) # 5f94 <printf>
    exit(1);
     af0:	4505                	li	a0,1
     af2:	00005097          	auipc	ra,0x5
     af6:	13a080e7          	jalr	314(ra) # 5c2c <exit>
      printf("%s: error: write aa %d new file failed\n", s, i);
     afa:	8626                	mv	a2,s1
     afc:	85da                	mv	a1,s6
     afe:	00006517          	auipc	a0,0x6
     b02:	9da50513          	add	a0,a0,-1574 # 64d8 <malloc+0x48c>
     b06:	00005097          	auipc	ra,0x5
     b0a:	48e080e7          	jalr	1166(ra) # 5f94 <printf>
      exit(1);
     b0e:	4505                	li	a0,1
     b10:	00005097          	auipc	ra,0x5
     b14:	11c080e7          	jalr	284(ra) # 5c2c <exit>
      printf("%s: error: write bb %d new file failed\n", s, i);
     b18:	8626                	mv	a2,s1
     b1a:	85da                	mv	a1,s6
     b1c:	00006517          	auipc	a0,0x6
     b20:	9f450513          	add	a0,a0,-1548 # 6510 <malloc+0x4c4>
     b24:	00005097          	auipc	ra,0x5
     b28:	470080e7          	jalr	1136(ra) # 5f94 <printf>
      exit(1);
     b2c:	4505                	li	a0,1
     b2e:	00005097          	auipc	ra,0x5
     b32:	0fe080e7          	jalr	254(ra) # 5c2c <exit>
    printf("%s: error: open small failed!\n", s);
     b36:	85da                	mv	a1,s6
     b38:	00006517          	auipc	a0,0x6
     b3c:	a0050513          	add	a0,a0,-1536 # 6538 <malloc+0x4ec>
     b40:	00005097          	auipc	ra,0x5
     b44:	454080e7          	jalr	1108(ra) # 5f94 <printf>
    exit(1);
     b48:	4505                	li	a0,1
     b4a:	00005097          	auipc	ra,0x5
     b4e:	0e2080e7          	jalr	226(ra) # 5c2c <exit>
    printf("%s: read failed\n", s);
     b52:	85da                	mv	a1,s6
     b54:	00006517          	auipc	a0,0x6
     b58:	a0450513          	add	a0,a0,-1532 # 6558 <malloc+0x50c>
     b5c:	00005097          	auipc	ra,0x5
     b60:	438080e7          	jalr	1080(ra) # 5f94 <printf>
    exit(1);
     b64:	4505                	li	a0,1
     b66:	00005097          	auipc	ra,0x5
     b6a:	0c6080e7          	jalr	198(ra) # 5c2c <exit>
    printf("%s: unlink small failed\n", s);
     b6e:	85da                	mv	a1,s6
     b70:	00006517          	auipc	a0,0x6
     b74:	a0050513          	add	a0,a0,-1536 # 6570 <malloc+0x524>
     b78:	00005097          	auipc	ra,0x5
     b7c:	41c080e7          	jalr	1052(ra) # 5f94 <printf>
    exit(1);
     b80:	4505                	li	a0,1
     b82:	00005097          	auipc	ra,0x5
     b86:	0aa080e7          	jalr	170(ra) # 5c2c <exit>

0000000000000b8a <writebig>:
{
     b8a:	7139                	add	sp,sp,-64
     b8c:	fc06                	sd	ra,56(sp)
     b8e:	f822                	sd	s0,48(sp)
     b90:	f426                	sd	s1,40(sp)
     b92:	f04a                	sd	s2,32(sp)
     b94:	ec4e                	sd	s3,24(sp)
     b96:	e852                	sd	s4,16(sp)
     b98:	e456                	sd	s5,8(sp)
     b9a:	0080                	add	s0,sp,64
     b9c:	8aaa                	mv	s5,a0
  fd = open("big", O_CREATE|O_RDWR);
     b9e:	20200593          	li	a1,514
     ba2:	00006517          	auipc	a0,0x6
     ba6:	9ee50513          	add	a0,a0,-1554 # 6590 <malloc+0x544>
     baa:	00005097          	auipc	ra,0x5
     bae:	0c2080e7          	jalr	194(ra) # 5c6c <open>
     bb2:	89aa                	mv	s3,a0
  for(i = 0; i < MAXFILE; i++){
     bb4:	4481                	li	s1,0
    ((int*)buf)[0] = i;
     bb6:	0000c917          	auipc	s2,0xc
     bba:	0c290913          	add	s2,s2,194 # cc78 <buf>
  for(i = 0; i < MAXFILE; i++){
     bbe:	10c00a13          	li	s4,268
  if(fd < 0){
     bc2:	06054c63          	bltz	a0,c3a <writebig+0xb0>
    ((int*)buf)[0] = i;
     bc6:	00992023          	sw	s1,0(s2)
    if(write(fd, buf, BSIZE) != BSIZE){
     bca:	40000613          	li	a2,1024
     bce:	85ca                	mv	a1,s2
     bd0:	854e                	mv	a0,s3
     bd2:	00005097          	auipc	ra,0x5
     bd6:	07a080e7          	jalr	122(ra) # 5c4c <write>
     bda:	40000793          	li	a5,1024
     bde:	06f51c63          	bne	a0,a5,c56 <writebig+0xcc>
  for(i = 0; i < MAXFILE; i++){
     be2:	2485                	addw	s1,s1,1
     be4:	ff4491e3          	bne	s1,s4,bc6 <writebig+0x3c>
  close(fd);
     be8:	854e                	mv	a0,s3
     bea:	00005097          	auipc	ra,0x5
     bee:	06a080e7          	jalr	106(ra) # 5c54 <close>
  fd = open("big", O_RDONLY);
     bf2:	4581                	li	a1,0
     bf4:	00006517          	auipc	a0,0x6
     bf8:	99c50513          	add	a0,a0,-1636 # 6590 <malloc+0x544>
     bfc:	00005097          	auipc	ra,0x5
     c00:	070080e7          	jalr	112(ra) # 5c6c <open>
     c04:	89aa                	mv	s3,a0
  n = 0;
     c06:	4481                	li	s1,0
    i = read(fd, buf, BSIZE);
     c08:	0000c917          	auipc	s2,0xc
     c0c:	07090913          	add	s2,s2,112 # cc78 <buf>
  if(fd < 0){
     c10:	06054263          	bltz	a0,c74 <writebig+0xea>
    i = read(fd, buf, BSIZE);
     c14:	40000613          	li	a2,1024
     c18:	85ca                	mv	a1,s2
     c1a:	854e                	mv	a0,s3
     c1c:	00005097          	auipc	ra,0x5
     c20:	028080e7          	jalr	40(ra) # 5c44 <read>
    if(i == 0){
     c24:	c535                	beqz	a0,c90 <writebig+0x106>
    } else if(i != BSIZE){
     c26:	40000793          	li	a5,1024
     c2a:	0af51f63          	bne	a0,a5,ce8 <writebig+0x15e>
    if(((int*)buf)[0] != n){
     c2e:	00092683          	lw	a3,0(s2)
     c32:	0c969a63          	bne	a3,s1,d06 <writebig+0x17c>
    n++;
     c36:	2485                	addw	s1,s1,1
    i = read(fd, buf, BSIZE);
     c38:	bff1                	j	c14 <writebig+0x8a>
    printf("%s: error: creat big failed!\n", s);
     c3a:	85d6                	mv	a1,s5
     c3c:	00006517          	auipc	a0,0x6
     c40:	95c50513          	add	a0,a0,-1700 # 6598 <malloc+0x54c>
     c44:	00005097          	auipc	ra,0x5
     c48:	350080e7          	jalr	848(ra) # 5f94 <printf>
    exit(1);
     c4c:	4505                	li	a0,1
     c4e:	00005097          	auipc	ra,0x5
     c52:	fde080e7          	jalr	-34(ra) # 5c2c <exit>
      printf("%s: error: write big file failed\n", s, i);
     c56:	8626                	mv	a2,s1
     c58:	85d6                	mv	a1,s5
     c5a:	00006517          	auipc	a0,0x6
     c5e:	95e50513          	add	a0,a0,-1698 # 65b8 <malloc+0x56c>
     c62:	00005097          	auipc	ra,0x5
     c66:	332080e7          	jalr	818(ra) # 5f94 <printf>
      exit(1);
     c6a:	4505                	li	a0,1
     c6c:	00005097          	auipc	ra,0x5
     c70:	fc0080e7          	jalr	-64(ra) # 5c2c <exit>
    printf("%s: error: open big failed!\n", s);
     c74:	85d6                	mv	a1,s5
     c76:	00006517          	auipc	a0,0x6
     c7a:	96a50513          	add	a0,a0,-1686 # 65e0 <malloc+0x594>
     c7e:	00005097          	auipc	ra,0x5
     c82:	316080e7          	jalr	790(ra) # 5f94 <printf>
    exit(1);
     c86:	4505                	li	a0,1
     c88:	00005097          	auipc	ra,0x5
     c8c:	fa4080e7          	jalr	-92(ra) # 5c2c <exit>
      if(n == MAXFILE - 1){
     c90:	10b00793          	li	a5,267
     c94:	02f48a63          	beq	s1,a5,cc8 <writebig+0x13e>
  close(fd);
     c98:	854e                	mv	a0,s3
     c9a:	00005097          	auipc	ra,0x5
     c9e:	fba080e7          	jalr	-70(ra) # 5c54 <close>
  if(unlink("big") < 0){
     ca2:	00006517          	auipc	a0,0x6
     ca6:	8ee50513          	add	a0,a0,-1810 # 6590 <malloc+0x544>
     caa:	00005097          	auipc	ra,0x5
     cae:	fd2080e7          	jalr	-46(ra) # 5c7c <unlink>
     cb2:	06054963          	bltz	a0,d24 <writebig+0x19a>
}
     cb6:	70e2                	ld	ra,56(sp)
     cb8:	7442                	ld	s0,48(sp)
     cba:	74a2                	ld	s1,40(sp)
     cbc:	7902                	ld	s2,32(sp)
     cbe:	69e2                	ld	s3,24(sp)
     cc0:	6a42                	ld	s4,16(sp)
     cc2:	6aa2                	ld	s5,8(sp)
     cc4:	6121                	add	sp,sp,64
     cc6:	8082                	ret
        printf("%s: read only %d blocks from big", s, n);
     cc8:	10b00613          	li	a2,267
     ccc:	85d6                	mv	a1,s5
     cce:	00006517          	auipc	a0,0x6
     cd2:	93250513          	add	a0,a0,-1742 # 6600 <malloc+0x5b4>
     cd6:	00005097          	auipc	ra,0x5
     cda:	2be080e7          	jalr	702(ra) # 5f94 <printf>
        exit(1);
     cde:	4505                	li	a0,1
     ce0:	00005097          	auipc	ra,0x5
     ce4:	f4c080e7          	jalr	-180(ra) # 5c2c <exit>
      printf("%s: read failed %d\n", s, i);
     ce8:	862a                	mv	a2,a0
     cea:	85d6                	mv	a1,s5
     cec:	00006517          	auipc	a0,0x6
     cf0:	93c50513          	add	a0,a0,-1732 # 6628 <malloc+0x5dc>
     cf4:	00005097          	auipc	ra,0x5
     cf8:	2a0080e7          	jalr	672(ra) # 5f94 <printf>
      exit(1);
     cfc:	4505                	li	a0,1
     cfe:	00005097          	auipc	ra,0x5
     d02:	f2e080e7          	jalr	-210(ra) # 5c2c <exit>
      printf("%s: read content of block %d is %d\n", s,
     d06:	8626                	mv	a2,s1
     d08:	85d6                	mv	a1,s5
     d0a:	00006517          	auipc	a0,0x6
     d0e:	93650513          	add	a0,a0,-1738 # 6640 <malloc+0x5f4>
     d12:	00005097          	auipc	ra,0x5
     d16:	282080e7          	jalr	642(ra) # 5f94 <printf>
      exit(1);
     d1a:	4505                	li	a0,1
     d1c:	00005097          	auipc	ra,0x5
     d20:	f10080e7          	jalr	-240(ra) # 5c2c <exit>
    printf("%s: unlink big failed\n", s);
     d24:	85d6                	mv	a1,s5
     d26:	00006517          	auipc	a0,0x6
     d2a:	94250513          	add	a0,a0,-1726 # 6668 <malloc+0x61c>
     d2e:	00005097          	auipc	ra,0x5
     d32:	266080e7          	jalr	614(ra) # 5f94 <printf>
    exit(1);
     d36:	4505                	li	a0,1
     d38:	00005097          	auipc	ra,0x5
     d3c:	ef4080e7          	jalr	-268(ra) # 5c2c <exit>

0000000000000d40 <unlinkread>:
{
     d40:	7179                	add	sp,sp,-48
     d42:	f406                	sd	ra,40(sp)
     d44:	f022                	sd	s0,32(sp)
     d46:	ec26                	sd	s1,24(sp)
     d48:	e84a                	sd	s2,16(sp)
     d4a:	e44e                	sd	s3,8(sp)
     d4c:	1800                	add	s0,sp,48
     d4e:	89aa                	mv	s3,a0
  fd = open("unlinkread", O_CREATE | O_RDWR);
     d50:	20200593          	li	a1,514
     d54:	00006517          	auipc	a0,0x6
     d58:	92c50513          	add	a0,a0,-1748 # 6680 <malloc+0x634>
     d5c:	00005097          	auipc	ra,0x5
     d60:	f10080e7          	jalr	-240(ra) # 5c6c <open>
  if(fd < 0){
     d64:	0e054563          	bltz	a0,e4e <unlinkread+0x10e>
     d68:	84aa                	mv	s1,a0
  write(fd, "hello", SZ);
     d6a:	4615                	li	a2,5
     d6c:	00006597          	auipc	a1,0x6
     d70:	94458593          	add	a1,a1,-1724 # 66b0 <malloc+0x664>
     d74:	00005097          	auipc	ra,0x5
     d78:	ed8080e7          	jalr	-296(ra) # 5c4c <write>
  close(fd);
     d7c:	8526                	mv	a0,s1
     d7e:	00005097          	auipc	ra,0x5
     d82:	ed6080e7          	jalr	-298(ra) # 5c54 <close>
  fd = open("unlinkread", O_RDWR);
     d86:	4589                	li	a1,2
     d88:	00006517          	auipc	a0,0x6
     d8c:	8f850513          	add	a0,a0,-1800 # 6680 <malloc+0x634>
     d90:	00005097          	auipc	ra,0x5
     d94:	edc080e7          	jalr	-292(ra) # 5c6c <open>
     d98:	84aa                	mv	s1,a0
  if(fd < 0){
     d9a:	0c054863          	bltz	a0,e6a <unlinkread+0x12a>
  if(unlink("unlinkread") != 0){
     d9e:	00006517          	auipc	a0,0x6
     da2:	8e250513          	add	a0,a0,-1822 # 6680 <malloc+0x634>
     da6:	00005097          	auipc	ra,0x5
     daa:	ed6080e7          	jalr	-298(ra) # 5c7c <unlink>
     dae:	ed61                	bnez	a0,e86 <unlinkread+0x146>
  fd1 = open("unlinkread", O_CREATE | O_RDWR);
     db0:	20200593          	li	a1,514
     db4:	00006517          	auipc	a0,0x6
     db8:	8cc50513          	add	a0,a0,-1844 # 6680 <malloc+0x634>
     dbc:	00005097          	auipc	ra,0x5
     dc0:	eb0080e7          	jalr	-336(ra) # 5c6c <open>
     dc4:	892a                	mv	s2,a0
  write(fd1, "yyy", 3);
     dc6:	460d                	li	a2,3
     dc8:	00006597          	auipc	a1,0x6
     dcc:	93058593          	add	a1,a1,-1744 # 66f8 <malloc+0x6ac>
     dd0:	00005097          	auipc	ra,0x5
     dd4:	e7c080e7          	jalr	-388(ra) # 5c4c <write>
  close(fd1);
     dd8:	854a                	mv	a0,s2
     dda:	00005097          	auipc	ra,0x5
     dde:	e7a080e7          	jalr	-390(ra) # 5c54 <close>
  if(read(fd, buf, sizeof(buf)) != SZ){
     de2:	660d                	lui	a2,0x3
     de4:	0000c597          	auipc	a1,0xc
     de8:	e9458593          	add	a1,a1,-364 # cc78 <buf>
     dec:	8526                	mv	a0,s1
     dee:	00005097          	auipc	ra,0x5
     df2:	e56080e7          	jalr	-426(ra) # 5c44 <read>
     df6:	4795                	li	a5,5
     df8:	0af51563          	bne	a0,a5,ea2 <unlinkread+0x162>
  if(buf[0] != 'h'){
     dfc:	0000c717          	auipc	a4,0xc
     e00:	e7c74703          	lbu	a4,-388(a4) # cc78 <buf>
     e04:	06800793          	li	a5,104
     e08:	0af71b63          	bne	a4,a5,ebe <unlinkread+0x17e>
  if(write(fd, buf, 10) != 10){
     e0c:	4629                	li	a2,10
     e0e:	0000c597          	auipc	a1,0xc
     e12:	e6a58593          	add	a1,a1,-406 # cc78 <buf>
     e16:	8526                	mv	a0,s1
     e18:	00005097          	auipc	ra,0x5
     e1c:	e34080e7          	jalr	-460(ra) # 5c4c <write>
     e20:	47a9                	li	a5,10
     e22:	0af51c63          	bne	a0,a5,eda <unlinkread+0x19a>
  close(fd);
     e26:	8526                	mv	a0,s1
     e28:	00005097          	auipc	ra,0x5
     e2c:	e2c080e7          	jalr	-468(ra) # 5c54 <close>
  unlink("unlinkread");
     e30:	00006517          	auipc	a0,0x6
     e34:	85050513          	add	a0,a0,-1968 # 6680 <malloc+0x634>
     e38:	00005097          	auipc	ra,0x5
     e3c:	e44080e7          	jalr	-444(ra) # 5c7c <unlink>
}
     e40:	70a2                	ld	ra,40(sp)
     e42:	7402                	ld	s0,32(sp)
     e44:	64e2                	ld	s1,24(sp)
     e46:	6942                	ld	s2,16(sp)
     e48:	69a2                	ld	s3,8(sp)
     e4a:	6145                	add	sp,sp,48
     e4c:	8082                	ret
    printf("%s: create unlinkread failed\n", s);
     e4e:	85ce                	mv	a1,s3
     e50:	00006517          	auipc	a0,0x6
     e54:	84050513          	add	a0,a0,-1984 # 6690 <malloc+0x644>
     e58:	00005097          	auipc	ra,0x5
     e5c:	13c080e7          	jalr	316(ra) # 5f94 <printf>
    exit(1);
     e60:	4505                	li	a0,1
     e62:	00005097          	auipc	ra,0x5
     e66:	dca080e7          	jalr	-566(ra) # 5c2c <exit>
    printf("%s: open unlinkread failed\n", s);
     e6a:	85ce                	mv	a1,s3
     e6c:	00006517          	auipc	a0,0x6
     e70:	84c50513          	add	a0,a0,-1972 # 66b8 <malloc+0x66c>
     e74:	00005097          	auipc	ra,0x5
     e78:	120080e7          	jalr	288(ra) # 5f94 <printf>
    exit(1);
     e7c:	4505                	li	a0,1
     e7e:	00005097          	auipc	ra,0x5
     e82:	dae080e7          	jalr	-594(ra) # 5c2c <exit>
    printf("%s: unlink unlinkread failed\n", s);
     e86:	85ce                	mv	a1,s3
     e88:	00006517          	auipc	a0,0x6
     e8c:	85050513          	add	a0,a0,-1968 # 66d8 <malloc+0x68c>
     e90:	00005097          	auipc	ra,0x5
     e94:	104080e7          	jalr	260(ra) # 5f94 <printf>
    exit(1);
     e98:	4505                	li	a0,1
     e9a:	00005097          	auipc	ra,0x5
     e9e:	d92080e7          	jalr	-622(ra) # 5c2c <exit>
    printf("%s: unlinkread read failed", s);
     ea2:	85ce                	mv	a1,s3
     ea4:	00006517          	auipc	a0,0x6
     ea8:	85c50513          	add	a0,a0,-1956 # 6700 <malloc+0x6b4>
     eac:	00005097          	auipc	ra,0x5
     eb0:	0e8080e7          	jalr	232(ra) # 5f94 <printf>
    exit(1);
     eb4:	4505                	li	a0,1
     eb6:	00005097          	auipc	ra,0x5
     eba:	d76080e7          	jalr	-650(ra) # 5c2c <exit>
    printf("%s: unlinkread wrong data\n", s);
     ebe:	85ce                	mv	a1,s3
     ec0:	00006517          	auipc	a0,0x6
     ec4:	86050513          	add	a0,a0,-1952 # 6720 <malloc+0x6d4>
     ec8:	00005097          	auipc	ra,0x5
     ecc:	0cc080e7          	jalr	204(ra) # 5f94 <printf>
    exit(1);
     ed0:	4505                	li	a0,1
     ed2:	00005097          	auipc	ra,0x5
     ed6:	d5a080e7          	jalr	-678(ra) # 5c2c <exit>
    printf("%s: unlinkread write failed\n", s);
     eda:	85ce                	mv	a1,s3
     edc:	00006517          	auipc	a0,0x6
     ee0:	86450513          	add	a0,a0,-1948 # 6740 <malloc+0x6f4>
     ee4:	00005097          	auipc	ra,0x5
     ee8:	0b0080e7          	jalr	176(ra) # 5f94 <printf>
    exit(1);
     eec:	4505                	li	a0,1
     eee:	00005097          	auipc	ra,0x5
     ef2:	d3e080e7          	jalr	-706(ra) # 5c2c <exit>

0000000000000ef6 <linktest>:
{
     ef6:	1101                	add	sp,sp,-32
     ef8:	ec06                	sd	ra,24(sp)
     efa:	e822                	sd	s0,16(sp)
     efc:	e426                	sd	s1,8(sp)
     efe:	e04a                	sd	s2,0(sp)
     f00:	1000                	add	s0,sp,32
     f02:	892a                	mv	s2,a0
  unlink("lf1");
     f04:	00006517          	auipc	a0,0x6
     f08:	85c50513          	add	a0,a0,-1956 # 6760 <malloc+0x714>
     f0c:	00005097          	auipc	ra,0x5
     f10:	d70080e7          	jalr	-656(ra) # 5c7c <unlink>
  unlink("lf2");
     f14:	00006517          	auipc	a0,0x6
     f18:	85450513          	add	a0,a0,-1964 # 6768 <malloc+0x71c>
     f1c:	00005097          	auipc	ra,0x5
     f20:	d60080e7          	jalr	-672(ra) # 5c7c <unlink>
  fd = open("lf1", O_CREATE|O_RDWR);
     f24:	20200593          	li	a1,514
     f28:	00006517          	auipc	a0,0x6
     f2c:	83850513          	add	a0,a0,-1992 # 6760 <malloc+0x714>
     f30:	00005097          	auipc	ra,0x5
     f34:	d3c080e7          	jalr	-708(ra) # 5c6c <open>
  if(fd < 0){
     f38:	10054763          	bltz	a0,1046 <linktest+0x150>
     f3c:	84aa                	mv	s1,a0
  if(write(fd, "hello", SZ) != SZ){
     f3e:	4615                	li	a2,5
     f40:	00005597          	auipc	a1,0x5
     f44:	77058593          	add	a1,a1,1904 # 66b0 <malloc+0x664>
     f48:	00005097          	auipc	ra,0x5
     f4c:	d04080e7          	jalr	-764(ra) # 5c4c <write>
     f50:	4795                	li	a5,5
     f52:	10f51863          	bne	a0,a5,1062 <linktest+0x16c>
  close(fd);
     f56:	8526                	mv	a0,s1
     f58:	00005097          	auipc	ra,0x5
     f5c:	cfc080e7          	jalr	-772(ra) # 5c54 <close>
  if(link("lf1", "lf2") < 0){
     f60:	00006597          	auipc	a1,0x6
     f64:	80858593          	add	a1,a1,-2040 # 6768 <malloc+0x71c>
     f68:	00005517          	auipc	a0,0x5
     f6c:	7f850513          	add	a0,a0,2040 # 6760 <malloc+0x714>
     f70:	00005097          	auipc	ra,0x5
     f74:	d1c080e7          	jalr	-740(ra) # 5c8c <link>
     f78:	10054363          	bltz	a0,107e <linktest+0x188>
  unlink("lf1");
     f7c:	00005517          	auipc	a0,0x5
     f80:	7e450513          	add	a0,a0,2020 # 6760 <malloc+0x714>
     f84:	00005097          	auipc	ra,0x5
     f88:	cf8080e7          	jalr	-776(ra) # 5c7c <unlink>
  if(open("lf1", 0) >= 0){
     f8c:	4581                	li	a1,0
     f8e:	00005517          	auipc	a0,0x5
     f92:	7d250513          	add	a0,a0,2002 # 6760 <malloc+0x714>
     f96:	00005097          	auipc	ra,0x5
     f9a:	cd6080e7          	jalr	-810(ra) # 5c6c <open>
     f9e:	0e055e63          	bgez	a0,109a <linktest+0x1a4>
  fd = open("lf2", 0);
     fa2:	4581                	li	a1,0
     fa4:	00005517          	auipc	a0,0x5
     fa8:	7c450513          	add	a0,a0,1988 # 6768 <malloc+0x71c>
     fac:	00005097          	auipc	ra,0x5
     fb0:	cc0080e7          	jalr	-832(ra) # 5c6c <open>
     fb4:	84aa                	mv	s1,a0
  if(fd < 0){
     fb6:	10054063          	bltz	a0,10b6 <linktest+0x1c0>
  if(read(fd, buf, sizeof(buf)) != SZ){
     fba:	660d                	lui	a2,0x3
     fbc:	0000c597          	auipc	a1,0xc
     fc0:	cbc58593          	add	a1,a1,-836 # cc78 <buf>
     fc4:	00005097          	auipc	ra,0x5
     fc8:	c80080e7          	jalr	-896(ra) # 5c44 <read>
     fcc:	4795                	li	a5,5
     fce:	10f51263          	bne	a0,a5,10d2 <linktest+0x1dc>
  close(fd);
     fd2:	8526                	mv	a0,s1
     fd4:	00005097          	auipc	ra,0x5
     fd8:	c80080e7          	jalr	-896(ra) # 5c54 <close>
  if(link("lf2", "lf2") >= 0){
     fdc:	00005597          	auipc	a1,0x5
     fe0:	78c58593          	add	a1,a1,1932 # 6768 <malloc+0x71c>
     fe4:	852e                	mv	a0,a1
     fe6:	00005097          	auipc	ra,0x5
     fea:	ca6080e7          	jalr	-858(ra) # 5c8c <link>
     fee:	10055063          	bgez	a0,10ee <linktest+0x1f8>
  unlink("lf2");
     ff2:	00005517          	auipc	a0,0x5
     ff6:	77650513          	add	a0,a0,1910 # 6768 <malloc+0x71c>
     ffa:	00005097          	auipc	ra,0x5
     ffe:	c82080e7          	jalr	-894(ra) # 5c7c <unlink>
  if(link("lf2", "lf1") >= 0){
    1002:	00005597          	auipc	a1,0x5
    1006:	75e58593          	add	a1,a1,1886 # 6760 <malloc+0x714>
    100a:	00005517          	auipc	a0,0x5
    100e:	75e50513          	add	a0,a0,1886 # 6768 <malloc+0x71c>
    1012:	00005097          	auipc	ra,0x5
    1016:	c7a080e7          	jalr	-902(ra) # 5c8c <link>
    101a:	0e055863          	bgez	a0,110a <linktest+0x214>
  if(link(".", "lf1") >= 0){
    101e:	00005597          	auipc	a1,0x5
    1022:	74258593          	add	a1,a1,1858 # 6760 <malloc+0x714>
    1026:	00006517          	auipc	a0,0x6
    102a:	84a50513          	add	a0,a0,-1974 # 6870 <malloc+0x824>
    102e:	00005097          	auipc	ra,0x5
    1032:	c5e080e7          	jalr	-930(ra) # 5c8c <link>
    1036:	0e055863          	bgez	a0,1126 <linktest+0x230>
}
    103a:	60e2                	ld	ra,24(sp)
    103c:	6442                	ld	s0,16(sp)
    103e:	64a2                	ld	s1,8(sp)
    1040:	6902                	ld	s2,0(sp)
    1042:	6105                	add	sp,sp,32
    1044:	8082                	ret
    printf("%s: create lf1 failed\n", s);
    1046:	85ca                	mv	a1,s2
    1048:	00005517          	auipc	a0,0x5
    104c:	72850513          	add	a0,a0,1832 # 6770 <malloc+0x724>
    1050:	00005097          	auipc	ra,0x5
    1054:	f44080e7          	jalr	-188(ra) # 5f94 <printf>
    exit(1);
    1058:	4505                	li	a0,1
    105a:	00005097          	auipc	ra,0x5
    105e:	bd2080e7          	jalr	-1070(ra) # 5c2c <exit>
    printf("%s: write lf1 failed\n", s);
    1062:	85ca                	mv	a1,s2
    1064:	00005517          	auipc	a0,0x5
    1068:	72450513          	add	a0,a0,1828 # 6788 <malloc+0x73c>
    106c:	00005097          	auipc	ra,0x5
    1070:	f28080e7          	jalr	-216(ra) # 5f94 <printf>
    exit(1);
    1074:	4505                	li	a0,1
    1076:	00005097          	auipc	ra,0x5
    107a:	bb6080e7          	jalr	-1098(ra) # 5c2c <exit>
    printf("%s: link lf1 lf2 failed\n", s);
    107e:	85ca                	mv	a1,s2
    1080:	00005517          	auipc	a0,0x5
    1084:	72050513          	add	a0,a0,1824 # 67a0 <malloc+0x754>
    1088:	00005097          	auipc	ra,0x5
    108c:	f0c080e7          	jalr	-244(ra) # 5f94 <printf>
    exit(1);
    1090:	4505                	li	a0,1
    1092:	00005097          	auipc	ra,0x5
    1096:	b9a080e7          	jalr	-1126(ra) # 5c2c <exit>
    printf("%s: unlinked lf1 but it is still there!\n", s);
    109a:	85ca                	mv	a1,s2
    109c:	00005517          	auipc	a0,0x5
    10a0:	72450513          	add	a0,a0,1828 # 67c0 <malloc+0x774>
    10a4:	00005097          	auipc	ra,0x5
    10a8:	ef0080e7          	jalr	-272(ra) # 5f94 <printf>
    exit(1);
    10ac:	4505                	li	a0,1
    10ae:	00005097          	auipc	ra,0x5
    10b2:	b7e080e7          	jalr	-1154(ra) # 5c2c <exit>
    printf("%s: open lf2 failed\n", s);
    10b6:	85ca                	mv	a1,s2
    10b8:	00005517          	auipc	a0,0x5
    10bc:	73850513          	add	a0,a0,1848 # 67f0 <malloc+0x7a4>
    10c0:	00005097          	auipc	ra,0x5
    10c4:	ed4080e7          	jalr	-300(ra) # 5f94 <printf>
    exit(1);
    10c8:	4505                	li	a0,1
    10ca:	00005097          	auipc	ra,0x5
    10ce:	b62080e7          	jalr	-1182(ra) # 5c2c <exit>
    printf("%s: read lf2 failed\n", s);
    10d2:	85ca                	mv	a1,s2
    10d4:	00005517          	auipc	a0,0x5
    10d8:	73450513          	add	a0,a0,1844 # 6808 <malloc+0x7bc>
    10dc:	00005097          	auipc	ra,0x5
    10e0:	eb8080e7          	jalr	-328(ra) # 5f94 <printf>
    exit(1);
    10e4:	4505                	li	a0,1
    10e6:	00005097          	auipc	ra,0x5
    10ea:	b46080e7          	jalr	-1210(ra) # 5c2c <exit>
    printf("%s: link lf2 lf2 succeeded! oops\n", s);
    10ee:	85ca                	mv	a1,s2
    10f0:	00005517          	auipc	a0,0x5
    10f4:	73050513          	add	a0,a0,1840 # 6820 <malloc+0x7d4>
    10f8:	00005097          	auipc	ra,0x5
    10fc:	e9c080e7          	jalr	-356(ra) # 5f94 <printf>
    exit(1);
    1100:	4505                	li	a0,1
    1102:	00005097          	auipc	ra,0x5
    1106:	b2a080e7          	jalr	-1238(ra) # 5c2c <exit>
    printf("%s: link non-existent succeeded! oops\n", s);
    110a:	85ca                	mv	a1,s2
    110c:	00005517          	auipc	a0,0x5
    1110:	73c50513          	add	a0,a0,1852 # 6848 <malloc+0x7fc>
    1114:	00005097          	auipc	ra,0x5
    1118:	e80080e7          	jalr	-384(ra) # 5f94 <printf>
    exit(1);
    111c:	4505                	li	a0,1
    111e:	00005097          	auipc	ra,0x5
    1122:	b0e080e7          	jalr	-1266(ra) # 5c2c <exit>
    printf("%s: link . lf1 succeeded! oops\n", s);
    1126:	85ca                	mv	a1,s2
    1128:	00005517          	auipc	a0,0x5
    112c:	75050513          	add	a0,a0,1872 # 6878 <malloc+0x82c>
    1130:	00005097          	auipc	ra,0x5
    1134:	e64080e7          	jalr	-412(ra) # 5f94 <printf>
    exit(1);
    1138:	4505                	li	a0,1
    113a:	00005097          	auipc	ra,0x5
    113e:	af2080e7          	jalr	-1294(ra) # 5c2c <exit>

0000000000001142 <validatetest>:
{
    1142:	7139                	add	sp,sp,-64
    1144:	fc06                	sd	ra,56(sp)
    1146:	f822                	sd	s0,48(sp)
    1148:	f426                	sd	s1,40(sp)
    114a:	f04a                	sd	s2,32(sp)
    114c:	ec4e                	sd	s3,24(sp)
    114e:	e852                	sd	s4,16(sp)
    1150:	e456                	sd	s5,8(sp)
    1152:	e05a                	sd	s6,0(sp)
    1154:	0080                	add	s0,sp,64
    1156:	8b2a                	mv	s6,a0
  for(p = 0; p <= (uint)hi; p += PGSIZE){
    1158:	4481                	li	s1,0
    if(link("nosuchfile", (char*)p) != -1){
    115a:	00005997          	auipc	s3,0x5
    115e:	73e98993          	add	s3,s3,1854 # 6898 <malloc+0x84c>
    1162:	597d                	li	s2,-1
  for(p = 0; p <= (uint)hi; p += PGSIZE){
    1164:	6a85                	lui	s5,0x1
    1166:	00114a37          	lui	s4,0x114
    if(link("nosuchfile", (char*)p) != -1){
    116a:	85a6                	mv	a1,s1
    116c:	854e                	mv	a0,s3
    116e:	00005097          	auipc	ra,0x5
    1172:	b1e080e7          	jalr	-1250(ra) # 5c8c <link>
    1176:	01251f63          	bne	a0,s2,1194 <validatetest+0x52>
  for(p = 0; p <= (uint)hi; p += PGSIZE){
    117a:	94d6                	add	s1,s1,s5
    117c:	ff4497e3          	bne	s1,s4,116a <validatetest+0x28>
}
    1180:	70e2                	ld	ra,56(sp)
    1182:	7442                	ld	s0,48(sp)
    1184:	74a2                	ld	s1,40(sp)
    1186:	7902                	ld	s2,32(sp)
    1188:	69e2                	ld	s3,24(sp)
    118a:	6a42                	ld	s4,16(sp)
    118c:	6aa2                	ld	s5,8(sp)
    118e:	6b02                	ld	s6,0(sp)
    1190:	6121                	add	sp,sp,64
    1192:	8082                	ret
      printf("%s: link should not succeed\n", s);
    1194:	85da                	mv	a1,s6
    1196:	00005517          	auipc	a0,0x5
    119a:	71250513          	add	a0,a0,1810 # 68a8 <malloc+0x85c>
    119e:	00005097          	auipc	ra,0x5
    11a2:	df6080e7          	jalr	-522(ra) # 5f94 <printf>
      exit(1);
    11a6:	4505                	li	a0,1
    11a8:	00005097          	auipc	ra,0x5
    11ac:	a84080e7          	jalr	-1404(ra) # 5c2c <exit>

00000000000011b0 <bigdir>:
{
    11b0:	715d                	add	sp,sp,-80
    11b2:	e486                	sd	ra,72(sp)
    11b4:	e0a2                	sd	s0,64(sp)
    11b6:	fc26                	sd	s1,56(sp)
    11b8:	f84a                	sd	s2,48(sp)
    11ba:	f44e                	sd	s3,40(sp)
    11bc:	f052                	sd	s4,32(sp)
    11be:	ec56                	sd	s5,24(sp)
    11c0:	e85a                	sd	s6,16(sp)
    11c2:	0880                	add	s0,sp,80
    11c4:	89aa                	mv	s3,a0
  unlink("bd");
    11c6:	00005517          	auipc	a0,0x5
    11ca:	70250513          	add	a0,a0,1794 # 68c8 <malloc+0x87c>
    11ce:	00005097          	auipc	ra,0x5
    11d2:	aae080e7          	jalr	-1362(ra) # 5c7c <unlink>
  fd = open("bd", O_CREATE);
    11d6:	20000593          	li	a1,512
    11da:	00005517          	auipc	a0,0x5
    11de:	6ee50513          	add	a0,a0,1774 # 68c8 <malloc+0x87c>
    11e2:	00005097          	auipc	ra,0x5
    11e6:	a8a080e7          	jalr	-1398(ra) # 5c6c <open>
  if(fd < 0){
    11ea:	0c054963          	bltz	a0,12bc <bigdir+0x10c>
  close(fd);
    11ee:	00005097          	auipc	ra,0x5
    11f2:	a66080e7          	jalr	-1434(ra) # 5c54 <close>
  for(i = 0; i < N; i++){
    11f6:	4901                	li	s2,0
    name[0] = 'x';
    11f8:	07800a93          	li	s5,120
    if(link("bd", name) != 0){
    11fc:	00005a17          	auipc	s4,0x5
    1200:	6cca0a13          	add	s4,s4,1740 # 68c8 <malloc+0x87c>
  for(i = 0; i < N; i++){
    1204:	1f400b13          	li	s6,500
    name[0] = 'x';
    1208:	fb540823          	sb	s5,-80(s0)
    name[1] = '0' + (i / 64);
    120c:	41f9571b          	sraw	a4,s2,0x1f
    1210:	01a7571b          	srlw	a4,a4,0x1a
    1214:	012707bb          	addw	a5,a4,s2
    1218:	4067d69b          	sraw	a3,a5,0x6
    121c:	0306869b          	addw	a3,a3,48
    1220:	fad408a3          	sb	a3,-79(s0)
    name[2] = '0' + (i % 64);
    1224:	03f7f793          	and	a5,a5,63
    1228:	9f99                	subw	a5,a5,a4
    122a:	0307879b          	addw	a5,a5,48
    122e:	faf40923          	sb	a5,-78(s0)
    name[3] = '\0';
    1232:	fa0409a3          	sb	zero,-77(s0)
    if(link("bd", name) != 0){
    1236:	fb040593          	add	a1,s0,-80
    123a:	8552                	mv	a0,s4
    123c:	00005097          	auipc	ra,0x5
    1240:	a50080e7          	jalr	-1456(ra) # 5c8c <link>
    1244:	84aa                	mv	s1,a0
    1246:	e949                	bnez	a0,12d8 <bigdir+0x128>
  for(i = 0; i < N; i++){
    1248:	2905                	addw	s2,s2,1
    124a:	fb691fe3          	bne	s2,s6,1208 <bigdir+0x58>
  unlink("bd");
    124e:	00005517          	auipc	a0,0x5
    1252:	67a50513          	add	a0,a0,1658 # 68c8 <malloc+0x87c>
    1256:	00005097          	auipc	ra,0x5
    125a:	a26080e7          	jalr	-1498(ra) # 5c7c <unlink>
    name[0] = 'x';
    125e:	07800913          	li	s2,120
  for(i = 0; i < N; i++){
    1262:	1f400a13          	li	s4,500
    name[0] = 'x';
    1266:	fb240823          	sb	s2,-80(s0)
    name[1] = '0' + (i / 64);
    126a:	41f4d71b          	sraw	a4,s1,0x1f
    126e:	01a7571b          	srlw	a4,a4,0x1a
    1272:	009707bb          	addw	a5,a4,s1
    1276:	4067d69b          	sraw	a3,a5,0x6
    127a:	0306869b          	addw	a3,a3,48
    127e:	fad408a3          	sb	a3,-79(s0)
    name[2] = '0' + (i % 64);
    1282:	03f7f793          	and	a5,a5,63
    1286:	9f99                	subw	a5,a5,a4
    1288:	0307879b          	addw	a5,a5,48
    128c:	faf40923          	sb	a5,-78(s0)
    name[3] = '\0';
    1290:	fa0409a3          	sb	zero,-77(s0)
    if(unlink(name) != 0){
    1294:	fb040513          	add	a0,s0,-80
    1298:	00005097          	auipc	ra,0x5
    129c:	9e4080e7          	jalr	-1564(ra) # 5c7c <unlink>
    12a0:	ed21                	bnez	a0,12f8 <bigdir+0x148>
  for(i = 0; i < N; i++){
    12a2:	2485                	addw	s1,s1,1
    12a4:	fd4491e3          	bne	s1,s4,1266 <bigdir+0xb6>
}
    12a8:	60a6                	ld	ra,72(sp)
    12aa:	6406                	ld	s0,64(sp)
    12ac:	74e2                	ld	s1,56(sp)
    12ae:	7942                	ld	s2,48(sp)
    12b0:	79a2                	ld	s3,40(sp)
    12b2:	7a02                	ld	s4,32(sp)
    12b4:	6ae2                	ld	s5,24(sp)
    12b6:	6b42                	ld	s6,16(sp)
    12b8:	6161                	add	sp,sp,80
    12ba:	8082                	ret
    printf("%s: bigdir create failed\n", s);
    12bc:	85ce                	mv	a1,s3
    12be:	00005517          	auipc	a0,0x5
    12c2:	61250513          	add	a0,a0,1554 # 68d0 <malloc+0x884>
    12c6:	00005097          	auipc	ra,0x5
    12ca:	cce080e7          	jalr	-818(ra) # 5f94 <printf>
    exit(1);
    12ce:	4505                	li	a0,1
    12d0:	00005097          	auipc	ra,0x5
    12d4:	95c080e7          	jalr	-1700(ra) # 5c2c <exit>
      printf("%s: bigdir link(bd, %s) failed\n", s, name);
    12d8:	fb040613          	add	a2,s0,-80
    12dc:	85ce                	mv	a1,s3
    12de:	00005517          	auipc	a0,0x5
    12e2:	61250513          	add	a0,a0,1554 # 68f0 <malloc+0x8a4>
    12e6:	00005097          	auipc	ra,0x5
    12ea:	cae080e7          	jalr	-850(ra) # 5f94 <printf>
      exit(1);
    12ee:	4505                	li	a0,1
    12f0:	00005097          	auipc	ra,0x5
    12f4:	93c080e7          	jalr	-1732(ra) # 5c2c <exit>
      printf("%s: bigdir unlink failed", s);
    12f8:	85ce                	mv	a1,s3
    12fa:	00005517          	auipc	a0,0x5
    12fe:	61650513          	add	a0,a0,1558 # 6910 <malloc+0x8c4>
    1302:	00005097          	auipc	ra,0x5
    1306:	c92080e7          	jalr	-878(ra) # 5f94 <printf>
      exit(1);
    130a:	4505                	li	a0,1
    130c:	00005097          	auipc	ra,0x5
    1310:	920080e7          	jalr	-1760(ra) # 5c2c <exit>

0000000000001314 <pgbug>:
{
    1314:	7179                	add	sp,sp,-48
    1316:	f406                	sd	ra,40(sp)
    1318:	f022                	sd	s0,32(sp)
    131a:	ec26                	sd	s1,24(sp)
    131c:	1800                	add	s0,sp,48
  argv[0] = 0;
    131e:	fc043c23          	sd	zero,-40(s0)
  exec(big, argv);
    1322:	00008497          	auipc	s1,0x8
    1326:	cde48493          	add	s1,s1,-802 # 9000 <big>
    132a:	fd840593          	add	a1,s0,-40
    132e:	6088                	ld	a0,0(s1)
    1330:	00005097          	auipc	ra,0x5
    1334:	934080e7          	jalr	-1740(ra) # 5c64 <exec>
  pipe(big);
    1338:	6088                	ld	a0,0(s1)
    133a:	00005097          	auipc	ra,0x5
    133e:	902080e7          	jalr	-1790(ra) # 5c3c <pipe>
  exit(0);
    1342:	4501                	li	a0,0
    1344:	00005097          	auipc	ra,0x5
    1348:	8e8080e7          	jalr	-1816(ra) # 5c2c <exit>

000000000000134c <badarg>:
{
    134c:	7139                	add	sp,sp,-64
    134e:	fc06                	sd	ra,56(sp)
    1350:	f822                	sd	s0,48(sp)
    1352:	f426                	sd	s1,40(sp)
    1354:	f04a                	sd	s2,32(sp)
    1356:	ec4e                	sd	s3,24(sp)
    1358:	0080                	add	s0,sp,64
    135a:	64b1                	lui	s1,0xc
    135c:	35048493          	add	s1,s1,848 # c350 <uninit+0x1de8>
    argv[0] = (char*)0xffffffff;
    1360:	597d                	li	s2,-1
    1362:	02095913          	srl	s2,s2,0x20
    exec("echo", argv);
    1366:	00005997          	auipc	s3,0x5
    136a:	e2298993          	add	s3,s3,-478 # 6188 <malloc+0x13c>
    argv[0] = (char*)0xffffffff;
    136e:	fd243023          	sd	s2,-64(s0)
    argv[1] = 0;
    1372:	fc043423          	sd	zero,-56(s0)
    exec("echo", argv);
    1376:	fc040593          	add	a1,s0,-64
    137a:	854e                	mv	a0,s3
    137c:	00005097          	auipc	ra,0x5
    1380:	8e8080e7          	jalr	-1816(ra) # 5c64 <exec>
  for(int i = 0; i < 50000; i++){
    1384:	34fd                	addw	s1,s1,-1
    1386:	f4e5                	bnez	s1,136e <badarg+0x22>
  exit(0);
    1388:	4501                	li	a0,0
    138a:	00005097          	auipc	ra,0x5
    138e:	8a2080e7          	jalr	-1886(ra) # 5c2c <exit>

0000000000001392 <copyinstr2>:
{
    1392:	7155                	add	sp,sp,-208
    1394:	e586                	sd	ra,200(sp)
    1396:	e1a2                	sd	s0,192(sp)
    1398:	0980                	add	s0,sp,208
  for(int i = 0; i < MAXPATH; i++)
    139a:	f6840793          	add	a5,s0,-152
    139e:	fe840693          	add	a3,s0,-24
    b[i] = 'x';
    13a2:	07800713          	li	a4,120
    13a6:	00e78023          	sb	a4,0(a5)
  for(int i = 0; i < MAXPATH; i++)
    13aa:	0785                	add	a5,a5,1
    13ac:	fed79de3          	bne	a5,a3,13a6 <copyinstr2+0x14>
  b[MAXPATH] = '\0';
    13b0:	fe040423          	sb	zero,-24(s0)
  int ret = unlink(b);
    13b4:	f6840513          	add	a0,s0,-152
    13b8:	00005097          	auipc	ra,0x5
    13bc:	8c4080e7          	jalr	-1852(ra) # 5c7c <unlink>
  if(ret != -1){
    13c0:	57fd                	li	a5,-1
    13c2:	0ef51063          	bne	a0,a5,14a2 <copyinstr2+0x110>
  int fd = open(b, O_CREATE | O_WRONLY);
    13c6:	20100593          	li	a1,513
    13ca:	f6840513          	add	a0,s0,-152
    13ce:	00005097          	auipc	ra,0x5
    13d2:	89e080e7          	jalr	-1890(ra) # 5c6c <open>
  if(fd != -1){
    13d6:	57fd                	li	a5,-1
    13d8:	0ef51563          	bne	a0,a5,14c2 <copyinstr2+0x130>
  ret = link(b, b);
    13dc:	f6840593          	add	a1,s0,-152
    13e0:	852e                	mv	a0,a1
    13e2:	00005097          	auipc	ra,0x5
    13e6:	8aa080e7          	jalr	-1878(ra) # 5c8c <link>
  if(ret != -1){
    13ea:	57fd                	li	a5,-1
    13ec:	0ef51b63          	bne	a0,a5,14e2 <copyinstr2+0x150>
  char *args[] = { "xx", 0 };
    13f0:	00006797          	auipc	a5,0x6
    13f4:	77878793          	add	a5,a5,1912 # 7b68 <malloc+0x1b1c>
    13f8:	f4f43c23          	sd	a5,-168(s0)
    13fc:	f6043023          	sd	zero,-160(s0)
  ret = exec(b, args);
    1400:	f5840593          	add	a1,s0,-168
    1404:	f6840513          	add	a0,s0,-152
    1408:	00005097          	auipc	ra,0x5
    140c:	85c080e7          	jalr	-1956(ra) # 5c64 <exec>
  if(ret != -1){
    1410:	57fd                	li	a5,-1
    1412:	0ef51963          	bne	a0,a5,1504 <copyinstr2+0x172>
  int pid = fork();
    1416:	00005097          	auipc	ra,0x5
    141a:	80e080e7          	jalr	-2034(ra) # 5c24 <fork>
  if(pid < 0){
    141e:	10054363          	bltz	a0,1524 <copyinstr2+0x192>
  if(pid == 0){
    1422:	12051463          	bnez	a0,154a <copyinstr2+0x1b8>
    1426:	00008797          	auipc	a5,0x8
    142a:	13a78793          	add	a5,a5,314 # 9560 <big.0>
    142e:	00009697          	auipc	a3,0x9
    1432:	13268693          	add	a3,a3,306 # a560 <big.0+0x1000>
      big[i] = 'x';
    1436:	07800713          	li	a4,120
    143a:	00e78023          	sb	a4,0(a5)
    for(int i = 0; i < PGSIZE; i++)
    143e:	0785                	add	a5,a5,1
    1440:	fed79de3          	bne	a5,a3,143a <copyinstr2+0xa8>
    big[PGSIZE] = '\0';
    1444:	00009797          	auipc	a5,0x9
    1448:	10078e23          	sb	zero,284(a5) # a560 <big.0+0x1000>
    char *args2[] = { big, big, big, 0 };
    144c:	00007797          	auipc	a5,0x7
    1450:	16478793          	add	a5,a5,356 # 85b0 <malloc+0x2564>
    1454:	6390                	ld	a2,0(a5)
    1456:	6794                	ld	a3,8(a5)
    1458:	6b98                	ld	a4,16(a5)
    145a:	6f9c                	ld	a5,24(a5)
    145c:	f2c43823          	sd	a2,-208(s0)
    1460:	f2d43c23          	sd	a3,-200(s0)
    1464:	f4e43023          	sd	a4,-192(s0)
    1468:	f4f43423          	sd	a5,-184(s0)
    ret = exec("echo", args2);
    146c:	f3040593          	add	a1,s0,-208
    1470:	00005517          	auipc	a0,0x5
    1474:	d1850513          	add	a0,a0,-744 # 6188 <malloc+0x13c>
    1478:	00004097          	auipc	ra,0x4
    147c:	7ec080e7          	jalr	2028(ra) # 5c64 <exec>
    if(ret != -1){
    1480:	57fd                	li	a5,-1
    1482:	0af50e63          	beq	a0,a5,153e <copyinstr2+0x1ac>
      printf("exec(echo, BIG) returned %d, not -1\n", fd);
    1486:	55fd                	li	a1,-1
    1488:	00005517          	auipc	a0,0x5
    148c:	53050513          	add	a0,a0,1328 # 69b8 <malloc+0x96c>
    1490:	00005097          	auipc	ra,0x5
    1494:	b04080e7          	jalr	-1276(ra) # 5f94 <printf>
      exit(1);
    1498:	4505                	li	a0,1
    149a:	00004097          	auipc	ra,0x4
    149e:	792080e7          	jalr	1938(ra) # 5c2c <exit>
    printf("unlink(%s) returned %d, not -1\n", b, ret);
    14a2:	862a                	mv	a2,a0
    14a4:	f6840593          	add	a1,s0,-152
    14a8:	00005517          	auipc	a0,0x5
    14ac:	48850513          	add	a0,a0,1160 # 6930 <malloc+0x8e4>
    14b0:	00005097          	auipc	ra,0x5
    14b4:	ae4080e7          	jalr	-1308(ra) # 5f94 <printf>
    exit(1);
    14b8:	4505                	li	a0,1
    14ba:	00004097          	auipc	ra,0x4
    14be:	772080e7          	jalr	1906(ra) # 5c2c <exit>
    printf("open(%s) returned %d, not -1\n", b, fd);
    14c2:	862a                	mv	a2,a0
    14c4:	f6840593          	add	a1,s0,-152
    14c8:	00005517          	auipc	a0,0x5
    14cc:	48850513          	add	a0,a0,1160 # 6950 <malloc+0x904>
    14d0:	00005097          	auipc	ra,0x5
    14d4:	ac4080e7          	jalr	-1340(ra) # 5f94 <printf>
    exit(1);
    14d8:	4505                	li	a0,1
    14da:	00004097          	auipc	ra,0x4
    14de:	752080e7          	jalr	1874(ra) # 5c2c <exit>
    printf("link(%s, %s) returned %d, not -1\n", b, b, ret);
    14e2:	86aa                	mv	a3,a0
    14e4:	f6840613          	add	a2,s0,-152
    14e8:	85b2                	mv	a1,a2
    14ea:	00005517          	auipc	a0,0x5
    14ee:	48650513          	add	a0,a0,1158 # 6970 <malloc+0x924>
    14f2:	00005097          	auipc	ra,0x5
    14f6:	aa2080e7          	jalr	-1374(ra) # 5f94 <printf>
    exit(1);
    14fa:	4505                	li	a0,1
    14fc:	00004097          	auipc	ra,0x4
    1500:	730080e7          	jalr	1840(ra) # 5c2c <exit>
    printf("exec(%s) returned %d, not -1\n", b, fd);
    1504:	567d                	li	a2,-1
    1506:	f6840593          	add	a1,s0,-152
    150a:	00005517          	auipc	a0,0x5
    150e:	48e50513          	add	a0,a0,1166 # 6998 <malloc+0x94c>
    1512:	00005097          	auipc	ra,0x5
    1516:	a82080e7          	jalr	-1406(ra) # 5f94 <printf>
    exit(1);
    151a:	4505                	li	a0,1
    151c:	00004097          	auipc	ra,0x4
    1520:	710080e7          	jalr	1808(ra) # 5c2c <exit>
    printf("fork failed\n");
    1524:	00006517          	auipc	a0,0x6
    1528:	8f450513          	add	a0,a0,-1804 # 6e18 <malloc+0xdcc>
    152c:	00005097          	auipc	ra,0x5
    1530:	a68080e7          	jalr	-1432(ra) # 5f94 <printf>
    exit(1);
    1534:	4505                	li	a0,1
    1536:	00004097          	auipc	ra,0x4
    153a:	6f6080e7          	jalr	1782(ra) # 5c2c <exit>
    exit(747); // OK
    153e:	2eb00513          	li	a0,747
    1542:	00004097          	auipc	ra,0x4
    1546:	6ea080e7          	jalr	1770(ra) # 5c2c <exit>
  int st = 0;
    154a:	f4042a23          	sw	zero,-172(s0)
  wait(&st);
    154e:	f5440513          	add	a0,s0,-172
    1552:	00004097          	auipc	ra,0x4
    1556:	6e2080e7          	jalr	1762(ra) # 5c34 <wait>
  if(st != 747){
    155a:	f5442703          	lw	a4,-172(s0)
    155e:	2eb00793          	li	a5,747
    1562:	00f71663          	bne	a4,a5,156e <copyinstr2+0x1dc>
}
    1566:	60ae                	ld	ra,200(sp)
    1568:	640e                	ld	s0,192(sp)
    156a:	6169                	add	sp,sp,208
    156c:	8082                	ret
    printf("exec(echo, BIG) succeeded, should have failed\n");
    156e:	00005517          	auipc	a0,0x5
    1572:	47250513          	add	a0,a0,1138 # 69e0 <malloc+0x994>
    1576:	00005097          	auipc	ra,0x5
    157a:	a1e080e7          	jalr	-1506(ra) # 5f94 <printf>
    exit(1);
    157e:	4505                	li	a0,1
    1580:	00004097          	auipc	ra,0x4
    1584:	6ac080e7          	jalr	1708(ra) # 5c2c <exit>

0000000000001588 <truncate3>:
{
    1588:	7159                	add	sp,sp,-112
    158a:	f486                	sd	ra,104(sp)
    158c:	f0a2                	sd	s0,96(sp)
    158e:	e8ca                	sd	s2,80(sp)
    1590:	1880                	add	s0,sp,112
    1592:	892a                	mv	s2,a0
  close(open("truncfile", O_CREATE|O_TRUNC|O_WRONLY));
    1594:	60100593          	li	a1,1537
    1598:	00005517          	auipc	a0,0x5
    159c:	c4850513          	add	a0,a0,-952 # 61e0 <malloc+0x194>
    15a0:	00004097          	auipc	ra,0x4
    15a4:	6cc080e7          	jalr	1740(ra) # 5c6c <open>
    15a8:	00004097          	auipc	ra,0x4
    15ac:	6ac080e7          	jalr	1708(ra) # 5c54 <close>
  pid = fork();
    15b0:	00004097          	auipc	ra,0x4
    15b4:	674080e7          	jalr	1652(ra) # 5c24 <fork>
  if(pid < 0){
    15b8:	08054463          	bltz	a0,1640 <truncate3+0xb8>
  if(pid == 0){
    15bc:	e16d                	bnez	a0,169e <truncate3+0x116>
    15be:	eca6                	sd	s1,88(sp)
    15c0:	e4ce                	sd	s3,72(sp)
    15c2:	e0d2                	sd	s4,64(sp)
    15c4:	fc56                	sd	s5,56(sp)
    15c6:	06400993          	li	s3,100
      int fd = open("truncfile", O_WRONLY);
    15ca:	00005a17          	auipc	s4,0x5
    15ce:	c16a0a13          	add	s4,s4,-1002 # 61e0 <malloc+0x194>
      int n = write(fd, "1234567890", 10);
    15d2:	00005a97          	auipc	s5,0x5
    15d6:	46ea8a93          	add	s5,s5,1134 # 6a40 <malloc+0x9f4>
      int fd = open("truncfile", O_WRONLY);
    15da:	4585                	li	a1,1
    15dc:	8552                	mv	a0,s4
    15de:	00004097          	auipc	ra,0x4
    15e2:	68e080e7          	jalr	1678(ra) # 5c6c <open>
    15e6:	84aa                	mv	s1,a0
      if(fd < 0){
    15e8:	06054e63          	bltz	a0,1664 <truncate3+0xdc>
      int n = write(fd, "1234567890", 10);
    15ec:	4629                	li	a2,10
    15ee:	85d6                	mv	a1,s5
    15f0:	00004097          	auipc	ra,0x4
    15f4:	65c080e7          	jalr	1628(ra) # 5c4c <write>
      if(n != 10){
    15f8:	47a9                	li	a5,10
    15fa:	08f51363          	bne	a0,a5,1680 <truncate3+0xf8>
      close(fd);
    15fe:	8526                	mv	a0,s1
    1600:	00004097          	auipc	ra,0x4
    1604:	654080e7          	jalr	1620(ra) # 5c54 <close>
      fd = open("truncfile", O_RDONLY);
    1608:	4581                	li	a1,0
    160a:	8552                	mv	a0,s4
    160c:	00004097          	auipc	ra,0x4
    1610:	660080e7          	jalr	1632(ra) # 5c6c <open>
    1614:	84aa                	mv	s1,a0
      read(fd, buf, sizeof(buf));
    1616:	02000613          	li	a2,32
    161a:	f9840593          	add	a1,s0,-104
    161e:	00004097          	auipc	ra,0x4
    1622:	626080e7          	jalr	1574(ra) # 5c44 <read>
      close(fd);
    1626:	8526                	mv	a0,s1
    1628:	00004097          	auipc	ra,0x4
    162c:	62c080e7          	jalr	1580(ra) # 5c54 <close>
    for(int i = 0; i < 100; i++){
    1630:	39fd                	addw	s3,s3,-1
    1632:	fa0994e3          	bnez	s3,15da <truncate3+0x52>
    exit(0);
    1636:	4501                	li	a0,0
    1638:	00004097          	auipc	ra,0x4
    163c:	5f4080e7          	jalr	1524(ra) # 5c2c <exit>
    1640:	eca6                	sd	s1,88(sp)
    1642:	e4ce                	sd	s3,72(sp)
    1644:	e0d2                	sd	s4,64(sp)
    1646:	fc56                	sd	s5,56(sp)
    printf("%s: fork failed\n", s);
    1648:	85ca                	mv	a1,s2
    164a:	00005517          	auipc	a0,0x5
    164e:	3c650513          	add	a0,a0,966 # 6a10 <malloc+0x9c4>
    1652:	00005097          	auipc	ra,0x5
    1656:	942080e7          	jalr	-1726(ra) # 5f94 <printf>
    exit(1);
    165a:	4505                	li	a0,1
    165c:	00004097          	auipc	ra,0x4
    1660:	5d0080e7          	jalr	1488(ra) # 5c2c <exit>
        printf("%s: open failed\n", s);
    1664:	85ca                	mv	a1,s2
    1666:	00005517          	auipc	a0,0x5
    166a:	3c250513          	add	a0,a0,962 # 6a28 <malloc+0x9dc>
    166e:	00005097          	auipc	ra,0x5
    1672:	926080e7          	jalr	-1754(ra) # 5f94 <printf>
        exit(1);
    1676:	4505                	li	a0,1
    1678:	00004097          	auipc	ra,0x4
    167c:	5b4080e7          	jalr	1460(ra) # 5c2c <exit>
        printf("%s: write got %d, expected 10\n", s, n);
    1680:	862a                	mv	a2,a0
    1682:	85ca                	mv	a1,s2
    1684:	00005517          	auipc	a0,0x5
    1688:	3cc50513          	add	a0,a0,972 # 6a50 <malloc+0xa04>
    168c:	00005097          	auipc	ra,0x5
    1690:	908080e7          	jalr	-1784(ra) # 5f94 <printf>
        exit(1);
    1694:	4505                	li	a0,1
    1696:	00004097          	auipc	ra,0x4
    169a:	596080e7          	jalr	1430(ra) # 5c2c <exit>
    169e:	eca6                	sd	s1,88(sp)
    16a0:	e4ce                	sd	s3,72(sp)
    16a2:	e0d2                	sd	s4,64(sp)
    16a4:	fc56                	sd	s5,56(sp)
    16a6:	09600993          	li	s3,150
    int fd = open("truncfile", O_CREATE|O_WRONLY|O_TRUNC);
    16aa:	00005a17          	auipc	s4,0x5
    16ae:	b36a0a13          	add	s4,s4,-1226 # 61e0 <malloc+0x194>
    int n = write(fd, "xxx", 3);
    16b2:	00005a97          	auipc	s5,0x5
    16b6:	3bea8a93          	add	s5,s5,958 # 6a70 <malloc+0xa24>
    int fd = open("truncfile", O_CREATE|O_WRONLY|O_TRUNC);
    16ba:	60100593          	li	a1,1537
    16be:	8552                	mv	a0,s4
    16c0:	00004097          	auipc	ra,0x4
    16c4:	5ac080e7          	jalr	1452(ra) # 5c6c <open>
    16c8:	84aa                	mv	s1,a0
    if(fd < 0){
    16ca:	04054763          	bltz	a0,1718 <truncate3+0x190>
    int n = write(fd, "xxx", 3);
    16ce:	460d                	li	a2,3
    16d0:	85d6                	mv	a1,s5
    16d2:	00004097          	auipc	ra,0x4
    16d6:	57a080e7          	jalr	1402(ra) # 5c4c <write>
    if(n != 3){
    16da:	478d                	li	a5,3
    16dc:	04f51c63          	bne	a0,a5,1734 <truncate3+0x1ac>
    close(fd);
    16e0:	8526                	mv	a0,s1
    16e2:	00004097          	auipc	ra,0x4
    16e6:	572080e7          	jalr	1394(ra) # 5c54 <close>
  for(int i = 0; i < 150; i++){
    16ea:	39fd                	addw	s3,s3,-1
    16ec:	fc0997e3          	bnez	s3,16ba <truncate3+0x132>
  wait(&xstatus);
    16f0:	fbc40513          	add	a0,s0,-68
    16f4:	00004097          	auipc	ra,0x4
    16f8:	540080e7          	jalr	1344(ra) # 5c34 <wait>
  unlink("truncfile");
    16fc:	00005517          	auipc	a0,0x5
    1700:	ae450513          	add	a0,a0,-1308 # 61e0 <malloc+0x194>
    1704:	00004097          	auipc	ra,0x4
    1708:	578080e7          	jalr	1400(ra) # 5c7c <unlink>
  exit(xstatus);
    170c:	fbc42503          	lw	a0,-68(s0)
    1710:	00004097          	auipc	ra,0x4
    1714:	51c080e7          	jalr	1308(ra) # 5c2c <exit>
      printf("%s: open failed\n", s);
    1718:	85ca                	mv	a1,s2
    171a:	00005517          	auipc	a0,0x5
    171e:	30e50513          	add	a0,a0,782 # 6a28 <malloc+0x9dc>
    1722:	00005097          	auipc	ra,0x5
    1726:	872080e7          	jalr	-1934(ra) # 5f94 <printf>
      exit(1);
    172a:	4505                	li	a0,1
    172c:	00004097          	auipc	ra,0x4
    1730:	500080e7          	jalr	1280(ra) # 5c2c <exit>
      printf("%s: write got %d, expected 3\n", s, n);
    1734:	862a                	mv	a2,a0
    1736:	85ca                	mv	a1,s2
    1738:	00005517          	auipc	a0,0x5
    173c:	34050513          	add	a0,a0,832 # 6a78 <malloc+0xa2c>
    1740:	00005097          	auipc	ra,0x5
    1744:	854080e7          	jalr	-1964(ra) # 5f94 <printf>
      exit(1);
    1748:	4505                	li	a0,1
    174a:	00004097          	auipc	ra,0x4
    174e:	4e2080e7          	jalr	1250(ra) # 5c2c <exit>

0000000000001752 <exectest>:
{
    1752:	715d                	add	sp,sp,-80
    1754:	e486                	sd	ra,72(sp)
    1756:	e0a2                	sd	s0,64(sp)
    1758:	f84a                	sd	s2,48(sp)
    175a:	0880                	add	s0,sp,80
    175c:	892a                	mv	s2,a0
  char *echoargv[] = { "echo", "OK", 0 };
    175e:	00005797          	auipc	a5,0x5
    1762:	a2a78793          	add	a5,a5,-1494 # 6188 <malloc+0x13c>
    1766:	fcf43023          	sd	a5,-64(s0)
    176a:	00005797          	auipc	a5,0x5
    176e:	32e78793          	add	a5,a5,814 # 6a98 <malloc+0xa4c>
    1772:	fcf43423          	sd	a5,-56(s0)
    1776:	fc043823          	sd	zero,-48(s0)
  unlink("echo-ok");
    177a:	00005517          	auipc	a0,0x5
    177e:	32650513          	add	a0,a0,806 # 6aa0 <malloc+0xa54>
    1782:	00004097          	auipc	ra,0x4
    1786:	4fa080e7          	jalr	1274(ra) # 5c7c <unlink>
  pid = fork();
    178a:	00004097          	auipc	ra,0x4
    178e:	49a080e7          	jalr	1178(ra) # 5c24 <fork>
  if(pid < 0) {
    1792:	04054763          	bltz	a0,17e0 <exectest+0x8e>
    1796:	fc26                	sd	s1,56(sp)
    1798:	84aa                	mv	s1,a0
  if(pid == 0) {
    179a:	ed41                	bnez	a0,1832 <exectest+0xe0>
    close(1);
    179c:	4505                	li	a0,1
    179e:	00004097          	auipc	ra,0x4
    17a2:	4b6080e7          	jalr	1206(ra) # 5c54 <close>
    fd = open("echo-ok", O_CREATE|O_WRONLY);
    17a6:	20100593          	li	a1,513
    17aa:	00005517          	auipc	a0,0x5
    17ae:	2f650513          	add	a0,a0,758 # 6aa0 <malloc+0xa54>
    17b2:	00004097          	auipc	ra,0x4
    17b6:	4ba080e7          	jalr	1210(ra) # 5c6c <open>
    if(fd < 0) {
    17ba:	04054263          	bltz	a0,17fe <exectest+0xac>
    if(fd != 1) {
    17be:	4785                	li	a5,1
    17c0:	04f50d63          	beq	a0,a5,181a <exectest+0xc8>
      printf("%s: wrong fd\n", s);
    17c4:	85ca                	mv	a1,s2
    17c6:	00005517          	auipc	a0,0x5
    17ca:	2fa50513          	add	a0,a0,762 # 6ac0 <malloc+0xa74>
    17ce:	00004097          	auipc	ra,0x4
    17d2:	7c6080e7          	jalr	1990(ra) # 5f94 <printf>
      exit(1);
    17d6:	4505                	li	a0,1
    17d8:	00004097          	auipc	ra,0x4
    17dc:	454080e7          	jalr	1108(ra) # 5c2c <exit>
    17e0:	fc26                	sd	s1,56(sp)
     printf("%s: fork failed\n", s);
    17e2:	85ca                	mv	a1,s2
    17e4:	00005517          	auipc	a0,0x5
    17e8:	22c50513          	add	a0,a0,556 # 6a10 <malloc+0x9c4>
    17ec:	00004097          	auipc	ra,0x4
    17f0:	7a8080e7          	jalr	1960(ra) # 5f94 <printf>
     exit(1);
    17f4:	4505                	li	a0,1
    17f6:	00004097          	auipc	ra,0x4
    17fa:	436080e7          	jalr	1078(ra) # 5c2c <exit>
      printf("%s: create failed\n", s);
    17fe:	85ca                	mv	a1,s2
    1800:	00005517          	auipc	a0,0x5
    1804:	2a850513          	add	a0,a0,680 # 6aa8 <malloc+0xa5c>
    1808:	00004097          	auipc	ra,0x4
    180c:	78c080e7          	jalr	1932(ra) # 5f94 <printf>
      exit(1);
    1810:	4505                	li	a0,1
    1812:	00004097          	auipc	ra,0x4
    1816:	41a080e7          	jalr	1050(ra) # 5c2c <exit>
    if(exec("echo", echoargv) < 0){
    181a:	fc040593          	add	a1,s0,-64
    181e:	00005517          	auipc	a0,0x5
    1822:	96a50513          	add	a0,a0,-1686 # 6188 <malloc+0x13c>
    1826:	00004097          	auipc	ra,0x4
    182a:	43e080e7          	jalr	1086(ra) # 5c64 <exec>
    182e:	02054163          	bltz	a0,1850 <exectest+0xfe>
  if (wait(&xstatus) != pid) {
    1832:	fdc40513          	add	a0,s0,-36
    1836:	00004097          	auipc	ra,0x4
    183a:	3fe080e7          	jalr	1022(ra) # 5c34 <wait>
    183e:	02951763          	bne	a0,s1,186c <exectest+0x11a>
  if(xstatus != 0)
    1842:	fdc42503          	lw	a0,-36(s0)
    1846:	cd0d                	beqz	a0,1880 <exectest+0x12e>
    exit(xstatus);
    1848:	00004097          	auipc	ra,0x4
    184c:	3e4080e7          	jalr	996(ra) # 5c2c <exit>
      printf("%s: exec echo failed\n", s);
    1850:	85ca                	mv	a1,s2
    1852:	00005517          	auipc	a0,0x5
    1856:	27e50513          	add	a0,a0,638 # 6ad0 <malloc+0xa84>
    185a:	00004097          	auipc	ra,0x4
    185e:	73a080e7          	jalr	1850(ra) # 5f94 <printf>
      exit(1);
    1862:	4505                	li	a0,1
    1864:	00004097          	auipc	ra,0x4
    1868:	3c8080e7          	jalr	968(ra) # 5c2c <exit>
    printf("%s: wait failed!\n", s);
    186c:	85ca                	mv	a1,s2
    186e:	00005517          	auipc	a0,0x5
    1872:	27a50513          	add	a0,a0,634 # 6ae8 <malloc+0xa9c>
    1876:	00004097          	auipc	ra,0x4
    187a:	71e080e7          	jalr	1822(ra) # 5f94 <printf>
    187e:	b7d1                	j	1842 <exectest+0xf0>
  fd = open("echo-ok", O_RDONLY);
    1880:	4581                	li	a1,0
    1882:	00005517          	auipc	a0,0x5
    1886:	21e50513          	add	a0,a0,542 # 6aa0 <malloc+0xa54>
    188a:	00004097          	auipc	ra,0x4
    188e:	3e2080e7          	jalr	994(ra) # 5c6c <open>
  if(fd < 0) {
    1892:	02054a63          	bltz	a0,18c6 <exectest+0x174>
  if (read(fd, buf, 2) != 2) {
    1896:	4609                	li	a2,2
    1898:	fb840593          	add	a1,s0,-72
    189c:	00004097          	auipc	ra,0x4
    18a0:	3a8080e7          	jalr	936(ra) # 5c44 <read>
    18a4:	4789                	li	a5,2
    18a6:	02f50e63          	beq	a0,a5,18e2 <exectest+0x190>
    printf("%s: read failed\n", s);
    18aa:	85ca                	mv	a1,s2
    18ac:	00005517          	auipc	a0,0x5
    18b0:	cac50513          	add	a0,a0,-852 # 6558 <malloc+0x50c>
    18b4:	00004097          	auipc	ra,0x4
    18b8:	6e0080e7          	jalr	1760(ra) # 5f94 <printf>
    exit(1);
    18bc:	4505                	li	a0,1
    18be:	00004097          	auipc	ra,0x4
    18c2:	36e080e7          	jalr	878(ra) # 5c2c <exit>
    printf("%s: open failed\n", s);
    18c6:	85ca                	mv	a1,s2
    18c8:	00005517          	auipc	a0,0x5
    18cc:	16050513          	add	a0,a0,352 # 6a28 <malloc+0x9dc>
    18d0:	00004097          	auipc	ra,0x4
    18d4:	6c4080e7          	jalr	1732(ra) # 5f94 <printf>
    exit(1);
    18d8:	4505                	li	a0,1
    18da:	00004097          	auipc	ra,0x4
    18de:	352080e7          	jalr	850(ra) # 5c2c <exit>
  unlink("echo-ok");
    18e2:	00005517          	auipc	a0,0x5
    18e6:	1be50513          	add	a0,a0,446 # 6aa0 <malloc+0xa54>
    18ea:	00004097          	auipc	ra,0x4
    18ee:	392080e7          	jalr	914(ra) # 5c7c <unlink>
  if(buf[0] == 'O' && buf[1] == 'K')
    18f2:	fb844703          	lbu	a4,-72(s0)
    18f6:	04f00793          	li	a5,79
    18fa:	00f71863          	bne	a4,a5,190a <exectest+0x1b8>
    18fe:	fb944703          	lbu	a4,-71(s0)
    1902:	04b00793          	li	a5,75
    1906:	02f70063          	beq	a4,a5,1926 <exectest+0x1d4>
    printf("%s: wrong output\n", s);
    190a:	85ca                	mv	a1,s2
    190c:	00005517          	auipc	a0,0x5
    1910:	1f450513          	add	a0,a0,500 # 6b00 <malloc+0xab4>
    1914:	00004097          	auipc	ra,0x4
    1918:	680080e7          	jalr	1664(ra) # 5f94 <printf>
    exit(1);
    191c:	4505                	li	a0,1
    191e:	00004097          	auipc	ra,0x4
    1922:	30e080e7          	jalr	782(ra) # 5c2c <exit>
    exit(0);
    1926:	4501                	li	a0,0
    1928:	00004097          	auipc	ra,0x4
    192c:	304080e7          	jalr	772(ra) # 5c2c <exit>

0000000000001930 <pipe1>:
{
    1930:	711d                	add	sp,sp,-96
    1932:	ec86                	sd	ra,88(sp)
    1934:	e8a2                	sd	s0,80(sp)
    1936:	fc4e                	sd	s3,56(sp)
    1938:	1080                	add	s0,sp,96
    193a:	89aa                	mv	s3,a0
  if(pipe(fds) != 0){
    193c:	fa840513          	add	a0,s0,-88
    1940:	00004097          	auipc	ra,0x4
    1944:	2fc080e7          	jalr	764(ra) # 5c3c <pipe>
    1948:	ed3d                	bnez	a0,19c6 <pipe1+0x96>
    194a:	e4a6                	sd	s1,72(sp)
    194c:	f852                	sd	s4,48(sp)
    194e:	84aa                	mv	s1,a0
  pid = fork();
    1950:	00004097          	auipc	ra,0x4
    1954:	2d4080e7          	jalr	724(ra) # 5c24 <fork>
    1958:	8a2a                	mv	s4,a0
  if(pid == 0){
    195a:	c951                	beqz	a0,19ee <pipe1+0xbe>
  } else if(pid > 0){
    195c:	18a05b63          	blez	a0,1af2 <pipe1+0x1c2>
    1960:	e0ca                	sd	s2,64(sp)
    1962:	f456                	sd	s5,40(sp)
    close(fds[1]);
    1964:	fac42503          	lw	a0,-84(s0)
    1968:	00004097          	auipc	ra,0x4
    196c:	2ec080e7          	jalr	748(ra) # 5c54 <close>
    total = 0;
    1970:	8a26                	mv	s4,s1
    cc = 1;
    1972:	4905                	li	s2,1
    while((n = read(fds[0], buf, cc)) > 0){
    1974:	0000ba97          	auipc	s5,0xb
    1978:	304a8a93          	add	s5,s5,772 # cc78 <buf>
    197c:	864a                	mv	a2,s2
    197e:	85d6                	mv	a1,s5
    1980:	fa842503          	lw	a0,-88(s0)
    1984:	00004097          	auipc	ra,0x4
    1988:	2c0080e7          	jalr	704(ra) # 5c44 <read>
    198c:	10a05a63          	blez	a0,1aa0 <pipe1+0x170>
      for(i = 0; i < n; i++){
    1990:	0000b717          	auipc	a4,0xb
    1994:	2e870713          	add	a4,a4,744 # cc78 <buf>
    1998:	00a4863b          	addw	a2,s1,a0
        if((buf[i] & 0xff) != (seq++ & 0xff)){
    199c:	00074683          	lbu	a3,0(a4)
    19a0:	0ff4f793          	zext.b	a5,s1
    19a4:	2485                	addw	s1,s1,1
    19a6:	0cf69b63          	bne	a3,a5,1a7c <pipe1+0x14c>
      for(i = 0; i < n; i++){
    19aa:	0705                	add	a4,a4,1
    19ac:	fec498e3          	bne	s1,a2,199c <pipe1+0x6c>
      total += n;
    19b0:	00aa0a3b          	addw	s4,s4,a0
      cc = cc * 2;
    19b4:	0019179b          	sllw	a5,s2,0x1
    19b8:	0007891b          	sext.w	s2,a5
      if(cc > sizeof(buf))
    19bc:	670d                	lui	a4,0x3
    19be:	fb277fe3          	bgeu	a4,s2,197c <pipe1+0x4c>
        cc = sizeof(buf);
    19c2:	690d                	lui	s2,0x3
    19c4:	bf65                	j	197c <pipe1+0x4c>
    19c6:	e4a6                	sd	s1,72(sp)
    19c8:	e0ca                	sd	s2,64(sp)
    19ca:	f852                	sd	s4,48(sp)
    19cc:	f456                	sd	s5,40(sp)
    19ce:	f05a                	sd	s6,32(sp)
    19d0:	ec5e                	sd	s7,24(sp)
    printf("%s: pipe() failed\n", s);
    19d2:	85ce                	mv	a1,s3
    19d4:	00005517          	auipc	a0,0x5
    19d8:	14450513          	add	a0,a0,324 # 6b18 <malloc+0xacc>
    19dc:	00004097          	auipc	ra,0x4
    19e0:	5b8080e7          	jalr	1464(ra) # 5f94 <printf>
    exit(1);
    19e4:	4505                	li	a0,1
    19e6:	00004097          	auipc	ra,0x4
    19ea:	246080e7          	jalr	582(ra) # 5c2c <exit>
    19ee:	e0ca                	sd	s2,64(sp)
    19f0:	f456                	sd	s5,40(sp)
    19f2:	f05a                	sd	s6,32(sp)
    19f4:	ec5e                	sd	s7,24(sp)
    close(fds[0]);
    19f6:	fa842503          	lw	a0,-88(s0)
    19fa:	00004097          	auipc	ra,0x4
    19fe:	25a080e7          	jalr	602(ra) # 5c54 <close>
    for(n = 0; n < N; n++){
    1a02:	0000bb17          	auipc	s6,0xb
    1a06:	276b0b13          	add	s6,s6,630 # cc78 <buf>
    1a0a:	416004bb          	negw	s1,s6
    1a0e:	0ff4f493          	zext.b	s1,s1
    1a12:	409b0913          	add	s2,s6,1033
      if(write(fds[1], buf, SZ) != SZ){
    1a16:	8bda                	mv	s7,s6
    for(n = 0; n < N; n++){
    1a18:	6a85                	lui	s5,0x1
    1a1a:	42da8a93          	add	s5,s5,1069 # 142d <copyinstr2+0x9b>
{
    1a1e:	87da                	mv	a5,s6
        buf[i] = seq++;
    1a20:	0097873b          	addw	a4,a5,s1
    1a24:	00e78023          	sb	a4,0(a5)
      for(i = 0; i < SZ; i++)
    1a28:	0785                	add	a5,a5,1
    1a2a:	ff279be3          	bne	a5,s2,1a20 <pipe1+0xf0>
    1a2e:	409a0a1b          	addw	s4,s4,1033
      if(write(fds[1], buf, SZ) != SZ){
    1a32:	40900613          	li	a2,1033
    1a36:	85de                	mv	a1,s7
    1a38:	fac42503          	lw	a0,-84(s0)
    1a3c:	00004097          	auipc	ra,0x4
    1a40:	210080e7          	jalr	528(ra) # 5c4c <write>
    1a44:	40900793          	li	a5,1033
    1a48:	00f51c63          	bne	a0,a5,1a60 <pipe1+0x130>
    for(n = 0; n < N; n++){
    1a4c:	24a5                	addw	s1,s1,9
    1a4e:	0ff4f493          	zext.b	s1,s1
    1a52:	fd5a16e3          	bne	s4,s5,1a1e <pipe1+0xee>
    exit(0);
    1a56:	4501                	li	a0,0
    1a58:	00004097          	auipc	ra,0x4
    1a5c:	1d4080e7          	jalr	468(ra) # 5c2c <exit>
        printf("%s: pipe1 oops 1\n", s);
    1a60:	85ce                	mv	a1,s3
    1a62:	00005517          	auipc	a0,0x5
    1a66:	0ce50513          	add	a0,a0,206 # 6b30 <malloc+0xae4>
    1a6a:	00004097          	auipc	ra,0x4
    1a6e:	52a080e7          	jalr	1322(ra) # 5f94 <printf>
        exit(1);
    1a72:	4505                	li	a0,1
    1a74:	00004097          	auipc	ra,0x4
    1a78:	1b8080e7          	jalr	440(ra) # 5c2c <exit>
          printf("%s: pipe1 oops 2\n", s);
    1a7c:	85ce                	mv	a1,s3
    1a7e:	00005517          	auipc	a0,0x5
    1a82:	0ca50513          	add	a0,a0,202 # 6b48 <malloc+0xafc>
    1a86:	00004097          	auipc	ra,0x4
    1a8a:	50e080e7          	jalr	1294(ra) # 5f94 <printf>
          return;
    1a8e:	64a6                	ld	s1,72(sp)
    1a90:	6906                	ld	s2,64(sp)
    1a92:	7a42                	ld	s4,48(sp)
    1a94:	7aa2                	ld	s5,40(sp)
}
    1a96:	60e6                	ld	ra,88(sp)
    1a98:	6446                	ld	s0,80(sp)
    1a9a:	79e2                	ld	s3,56(sp)
    1a9c:	6125                	add	sp,sp,96
    1a9e:	8082                	ret
    if(total != N * SZ){
    1aa0:	6785                	lui	a5,0x1
    1aa2:	42d78793          	add	a5,a5,1069 # 142d <copyinstr2+0x9b>
    1aa6:	02fa0263          	beq	s4,a5,1aca <pipe1+0x19a>
    1aaa:	f05a                	sd	s6,32(sp)
    1aac:	ec5e                	sd	s7,24(sp)
      printf("%s: pipe1 oops 3 total %d\n", total);
    1aae:	85d2                	mv	a1,s4
    1ab0:	00005517          	auipc	a0,0x5
    1ab4:	0b050513          	add	a0,a0,176 # 6b60 <malloc+0xb14>
    1ab8:	00004097          	auipc	ra,0x4
    1abc:	4dc080e7          	jalr	1244(ra) # 5f94 <printf>
      exit(1);
    1ac0:	4505                	li	a0,1
    1ac2:	00004097          	auipc	ra,0x4
    1ac6:	16a080e7          	jalr	362(ra) # 5c2c <exit>
    1aca:	f05a                	sd	s6,32(sp)
    1acc:	ec5e                	sd	s7,24(sp)
    close(fds[0]);
    1ace:	fa842503          	lw	a0,-88(s0)
    1ad2:	00004097          	auipc	ra,0x4
    1ad6:	182080e7          	jalr	386(ra) # 5c54 <close>
    wait(&xstatus);
    1ada:	fa440513          	add	a0,s0,-92
    1ade:	00004097          	auipc	ra,0x4
    1ae2:	156080e7          	jalr	342(ra) # 5c34 <wait>
    exit(xstatus);
    1ae6:	fa442503          	lw	a0,-92(s0)
    1aea:	00004097          	auipc	ra,0x4
    1aee:	142080e7          	jalr	322(ra) # 5c2c <exit>
    1af2:	e0ca                	sd	s2,64(sp)
    1af4:	f456                	sd	s5,40(sp)
    1af6:	f05a                	sd	s6,32(sp)
    1af8:	ec5e                	sd	s7,24(sp)
    printf("%s: fork() failed\n", s);
    1afa:	85ce                	mv	a1,s3
    1afc:	00005517          	auipc	a0,0x5
    1b00:	08450513          	add	a0,a0,132 # 6b80 <malloc+0xb34>
    1b04:	00004097          	auipc	ra,0x4
    1b08:	490080e7          	jalr	1168(ra) # 5f94 <printf>
    exit(1);
    1b0c:	4505                	li	a0,1
    1b0e:	00004097          	auipc	ra,0x4
    1b12:	11e080e7          	jalr	286(ra) # 5c2c <exit>

0000000000001b16 <exitwait>:
{
    1b16:	7139                	add	sp,sp,-64
    1b18:	fc06                	sd	ra,56(sp)
    1b1a:	f822                	sd	s0,48(sp)
    1b1c:	f426                	sd	s1,40(sp)
    1b1e:	f04a                	sd	s2,32(sp)
    1b20:	ec4e                	sd	s3,24(sp)
    1b22:	e852                	sd	s4,16(sp)
    1b24:	0080                	add	s0,sp,64
    1b26:	8a2a                	mv	s4,a0
  for(i = 0; i < 100; i++){
    1b28:	4901                	li	s2,0
    1b2a:	06400993          	li	s3,100
    pid = fork();
    1b2e:	00004097          	auipc	ra,0x4
    1b32:	0f6080e7          	jalr	246(ra) # 5c24 <fork>
    1b36:	84aa                	mv	s1,a0
    if(pid < 0){
    1b38:	02054a63          	bltz	a0,1b6c <exitwait+0x56>
    if(pid){
    1b3c:	c151                	beqz	a0,1bc0 <exitwait+0xaa>
      if(wait(&xstate) != pid){
    1b3e:	fcc40513          	add	a0,s0,-52
    1b42:	00004097          	auipc	ra,0x4
    1b46:	0f2080e7          	jalr	242(ra) # 5c34 <wait>
    1b4a:	02951f63          	bne	a0,s1,1b88 <exitwait+0x72>
      if(i != xstate) {
    1b4e:	fcc42783          	lw	a5,-52(s0)
    1b52:	05279963          	bne	a5,s2,1ba4 <exitwait+0x8e>
  for(i = 0; i < 100; i++){
    1b56:	2905                	addw	s2,s2,1 # 3001 <execout+0x51>
    1b58:	fd391be3          	bne	s2,s3,1b2e <exitwait+0x18>
}
    1b5c:	70e2                	ld	ra,56(sp)
    1b5e:	7442                	ld	s0,48(sp)
    1b60:	74a2                	ld	s1,40(sp)
    1b62:	7902                	ld	s2,32(sp)
    1b64:	69e2                	ld	s3,24(sp)
    1b66:	6a42                	ld	s4,16(sp)
    1b68:	6121                	add	sp,sp,64
    1b6a:	8082                	ret
      printf("%s: fork failed\n", s);
    1b6c:	85d2                	mv	a1,s4
    1b6e:	00005517          	auipc	a0,0x5
    1b72:	ea250513          	add	a0,a0,-350 # 6a10 <malloc+0x9c4>
    1b76:	00004097          	auipc	ra,0x4
    1b7a:	41e080e7          	jalr	1054(ra) # 5f94 <printf>
      exit(1);
    1b7e:	4505                	li	a0,1
    1b80:	00004097          	auipc	ra,0x4
    1b84:	0ac080e7          	jalr	172(ra) # 5c2c <exit>
        printf("%s: wait wrong pid\n", s);
    1b88:	85d2                	mv	a1,s4
    1b8a:	00005517          	auipc	a0,0x5
    1b8e:	00e50513          	add	a0,a0,14 # 6b98 <malloc+0xb4c>
    1b92:	00004097          	auipc	ra,0x4
    1b96:	402080e7          	jalr	1026(ra) # 5f94 <printf>
        exit(1);
    1b9a:	4505                	li	a0,1
    1b9c:	00004097          	auipc	ra,0x4
    1ba0:	090080e7          	jalr	144(ra) # 5c2c <exit>
        printf("%s: wait wrong exit status\n", s);
    1ba4:	85d2                	mv	a1,s4
    1ba6:	00005517          	auipc	a0,0x5
    1baa:	00a50513          	add	a0,a0,10 # 6bb0 <malloc+0xb64>
    1bae:	00004097          	auipc	ra,0x4
    1bb2:	3e6080e7          	jalr	998(ra) # 5f94 <printf>
        exit(1);
    1bb6:	4505                	li	a0,1
    1bb8:	00004097          	auipc	ra,0x4
    1bbc:	074080e7          	jalr	116(ra) # 5c2c <exit>
      exit(i);
    1bc0:	854a                	mv	a0,s2
    1bc2:	00004097          	auipc	ra,0x4
    1bc6:	06a080e7          	jalr	106(ra) # 5c2c <exit>

0000000000001bca <twochildren>:
{
    1bca:	1101                	add	sp,sp,-32
    1bcc:	ec06                	sd	ra,24(sp)
    1bce:	e822                	sd	s0,16(sp)
    1bd0:	e426                	sd	s1,8(sp)
    1bd2:	e04a                	sd	s2,0(sp)
    1bd4:	1000                	add	s0,sp,32
    1bd6:	892a                	mv	s2,a0
    1bd8:	3e800493          	li	s1,1000
    int pid1 = fork();
    1bdc:	00004097          	auipc	ra,0x4
    1be0:	048080e7          	jalr	72(ra) # 5c24 <fork>
    if(pid1 < 0){
    1be4:	02054c63          	bltz	a0,1c1c <twochildren+0x52>
    if(pid1 == 0){
    1be8:	c921                	beqz	a0,1c38 <twochildren+0x6e>
      int pid2 = fork();
    1bea:	00004097          	auipc	ra,0x4
    1bee:	03a080e7          	jalr	58(ra) # 5c24 <fork>
      if(pid2 < 0){
    1bf2:	04054763          	bltz	a0,1c40 <twochildren+0x76>
      if(pid2 == 0){
    1bf6:	c13d                	beqz	a0,1c5c <twochildren+0x92>
        wait(0);
    1bf8:	4501                	li	a0,0
    1bfa:	00004097          	auipc	ra,0x4
    1bfe:	03a080e7          	jalr	58(ra) # 5c34 <wait>
        wait(0);
    1c02:	4501                	li	a0,0
    1c04:	00004097          	auipc	ra,0x4
    1c08:	030080e7          	jalr	48(ra) # 5c34 <wait>
  for(int i = 0; i < 1000; i++){
    1c0c:	34fd                	addw	s1,s1,-1
    1c0e:	f4f9                	bnez	s1,1bdc <twochildren+0x12>
}
    1c10:	60e2                	ld	ra,24(sp)
    1c12:	6442                	ld	s0,16(sp)
    1c14:	64a2                	ld	s1,8(sp)
    1c16:	6902                	ld	s2,0(sp)
    1c18:	6105                	add	sp,sp,32
    1c1a:	8082                	ret
      printf("%s: fork failed\n", s);
    1c1c:	85ca                	mv	a1,s2
    1c1e:	00005517          	auipc	a0,0x5
    1c22:	df250513          	add	a0,a0,-526 # 6a10 <malloc+0x9c4>
    1c26:	00004097          	auipc	ra,0x4
    1c2a:	36e080e7          	jalr	878(ra) # 5f94 <printf>
      exit(1);
    1c2e:	4505                	li	a0,1
    1c30:	00004097          	auipc	ra,0x4
    1c34:	ffc080e7          	jalr	-4(ra) # 5c2c <exit>
      exit(0);
    1c38:	00004097          	auipc	ra,0x4
    1c3c:	ff4080e7          	jalr	-12(ra) # 5c2c <exit>
        printf("%s: fork failed\n", s);
    1c40:	85ca                	mv	a1,s2
    1c42:	00005517          	auipc	a0,0x5
    1c46:	dce50513          	add	a0,a0,-562 # 6a10 <malloc+0x9c4>
    1c4a:	00004097          	auipc	ra,0x4
    1c4e:	34a080e7          	jalr	842(ra) # 5f94 <printf>
        exit(1);
    1c52:	4505                	li	a0,1
    1c54:	00004097          	auipc	ra,0x4
    1c58:	fd8080e7          	jalr	-40(ra) # 5c2c <exit>
        exit(0);
    1c5c:	00004097          	auipc	ra,0x4
    1c60:	fd0080e7          	jalr	-48(ra) # 5c2c <exit>

0000000000001c64 <forkfork>:
{
    1c64:	7179                	add	sp,sp,-48
    1c66:	f406                	sd	ra,40(sp)
    1c68:	f022                	sd	s0,32(sp)
    1c6a:	ec26                	sd	s1,24(sp)
    1c6c:	1800                	add	s0,sp,48
    1c6e:	84aa                	mv	s1,a0
    int pid = fork();
    1c70:	00004097          	auipc	ra,0x4
    1c74:	fb4080e7          	jalr	-76(ra) # 5c24 <fork>
    if(pid < 0){
    1c78:	04054163          	bltz	a0,1cba <forkfork+0x56>
    if(pid == 0){
    1c7c:	cd29                	beqz	a0,1cd6 <forkfork+0x72>
    int pid = fork();
    1c7e:	00004097          	auipc	ra,0x4
    1c82:	fa6080e7          	jalr	-90(ra) # 5c24 <fork>
    if(pid < 0){
    1c86:	02054a63          	bltz	a0,1cba <forkfork+0x56>
    if(pid == 0){
    1c8a:	c531                	beqz	a0,1cd6 <forkfork+0x72>
    wait(&xstatus);
    1c8c:	fdc40513          	add	a0,s0,-36
    1c90:	00004097          	auipc	ra,0x4
    1c94:	fa4080e7          	jalr	-92(ra) # 5c34 <wait>
    if(xstatus != 0) {
    1c98:	fdc42783          	lw	a5,-36(s0)
    1c9c:	ebbd                	bnez	a5,1d12 <forkfork+0xae>
    wait(&xstatus);
    1c9e:	fdc40513          	add	a0,s0,-36
    1ca2:	00004097          	auipc	ra,0x4
    1ca6:	f92080e7          	jalr	-110(ra) # 5c34 <wait>
    if(xstatus != 0) {
    1caa:	fdc42783          	lw	a5,-36(s0)
    1cae:	e3b5                	bnez	a5,1d12 <forkfork+0xae>
}
    1cb0:	70a2                	ld	ra,40(sp)
    1cb2:	7402                	ld	s0,32(sp)
    1cb4:	64e2                	ld	s1,24(sp)
    1cb6:	6145                	add	sp,sp,48
    1cb8:	8082                	ret
      printf("%s: fork failed", s);
    1cba:	85a6                	mv	a1,s1
    1cbc:	00005517          	auipc	a0,0x5
    1cc0:	f1450513          	add	a0,a0,-236 # 6bd0 <malloc+0xb84>
    1cc4:	00004097          	auipc	ra,0x4
    1cc8:	2d0080e7          	jalr	720(ra) # 5f94 <printf>
      exit(1);
    1ccc:	4505                	li	a0,1
    1cce:	00004097          	auipc	ra,0x4
    1cd2:	f5e080e7          	jalr	-162(ra) # 5c2c <exit>
{
    1cd6:	0c800493          	li	s1,200
        int pid1 = fork();
    1cda:	00004097          	auipc	ra,0x4
    1cde:	f4a080e7          	jalr	-182(ra) # 5c24 <fork>
        if(pid1 < 0){
    1ce2:	00054f63          	bltz	a0,1d00 <forkfork+0x9c>
        if(pid1 == 0){
    1ce6:	c115                	beqz	a0,1d0a <forkfork+0xa6>
        wait(0);
    1ce8:	4501                	li	a0,0
    1cea:	00004097          	auipc	ra,0x4
    1cee:	f4a080e7          	jalr	-182(ra) # 5c34 <wait>
      for(int j = 0; j < 200; j++){
    1cf2:	34fd                	addw	s1,s1,-1
    1cf4:	f0fd                	bnez	s1,1cda <forkfork+0x76>
      exit(0);
    1cf6:	4501                	li	a0,0
    1cf8:	00004097          	auipc	ra,0x4
    1cfc:	f34080e7          	jalr	-204(ra) # 5c2c <exit>
          exit(1);
    1d00:	4505                	li	a0,1
    1d02:	00004097          	auipc	ra,0x4
    1d06:	f2a080e7          	jalr	-214(ra) # 5c2c <exit>
          exit(0);
    1d0a:	00004097          	auipc	ra,0x4
    1d0e:	f22080e7          	jalr	-222(ra) # 5c2c <exit>
      printf("%s: fork in child failed", s);
    1d12:	85a6                	mv	a1,s1
    1d14:	00005517          	auipc	a0,0x5
    1d18:	ecc50513          	add	a0,a0,-308 # 6be0 <malloc+0xb94>
    1d1c:	00004097          	auipc	ra,0x4
    1d20:	278080e7          	jalr	632(ra) # 5f94 <printf>
      exit(1);
    1d24:	4505                	li	a0,1
    1d26:	00004097          	auipc	ra,0x4
    1d2a:	f06080e7          	jalr	-250(ra) # 5c2c <exit>

0000000000001d2e <reparent2>:
{
    1d2e:	1101                	add	sp,sp,-32
    1d30:	ec06                	sd	ra,24(sp)
    1d32:	e822                	sd	s0,16(sp)
    1d34:	e426                	sd	s1,8(sp)
    1d36:	1000                	add	s0,sp,32
    1d38:	32000493          	li	s1,800
    int pid1 = fork();
    1d3c:	00004097          	auipc	ra,0x4
    1d40:	ee8080e7          	jalr	-280(ra) # 5c24 <fork>
    if(pid1 < 0){
    1d44:	00054f63          	bltz	a0,1d62 <reparent2+0x34>
    if(pid1 == 0){
    1d48:	c915                	beqz	a0,1d7c <reparent2+0x4e>
    wait(0);
    1d4a:	4501                	li	a0,0
    1d4c:	00004097          	auipc	ra,0x4
    1d50:	ee8080e7          	jalr	-280(ra) # 5c34 <wait>
  for(int i = 0; i < 800; i++){
    1d54:	34fd                	addw	s1,s1,-1
    1d56:	f0fd                	bnez	s1,1d3c <reparent2+0xe>
  exit(0);
    1d58:	4501                	li	a0,0
    1d5a:	00004097          	auipc	ra,0x4
    1d5e:	ed2080e7          	jalr	-302(ra) # 5c2c <exit>
      printf("fork failed\n");
    1d62:	00005517          	auipc	a0,0x5
    1d66:	0b650513          	add	a0,a0,182 # 6e18 <malloc+0xdcc>
    1d6a:	00004097          	auipc	ra,0x4
    1d6e:	22a080e7          	jalr	554(ra) # 5f94 <printf>
      exit(1);
    1d72:	4505                	li	a0,1
    1d74:	00004097          	auipc	ra,0x4
    1d78:	eb8080e7          	jalr	-328(ra) # 5c2c <exit>
      fork();
    1d7c:	00004097          	auipc	ra,0x4
    1d80:	ea8080e7          	jalr	-344(ra) # 5c24 <fork>
      fork();
    1d84:	00004097          	auipc	ra,0x4
    1d88:	ea0080e7          	jalr	-352(ra) # 5c24 <fork>
      exit(0);
    1d8c:	4501                	li	a0,0
    1d8e:	00004097          	auipc	ra,0x4
    1d92:	e9e080e7          	jalr	-354(ra) # 5c2c <exit>

0000000000001d96 <createdelete>:
{
    1d96:	7175                	add	sp,sp,-144
    1d98:	e506                	sd	ra,136(sp)
    1d9a:	e122                	sd	s0,128(sp)
    1d9c:	fca6                	sd	s1,120(sp)
    1d9e:	f8ca                	sd	s2,112(sp)
    1da0:	f4ce                	sd	s3,104(sp)
    1da2:	f0d2                	sd	s4,96(sp)
    1da4:	ecd6                	sd	s5,88(sp)
    1da6:	e8da                	sd	s6,80(sp)
    1da8:	e4de                	sd	s7,72(sp)
    1daa:	e0e2                	sd	s8,64(sp)
    1dac:	fc66                	sd	s9,56(sp)
    1dae:	0900                	add	s0,sp,144
    1db0:	8caa                	mv	s9,a0
  for(pi = 0; pi < NCHILD; pi++){
    1db2:	4901                	li	s2,0
    1db4:	4991                	li	s3,4
    pid = fork();
    1db6:	00004097          	auipc	ra,0x4
    1dba:	e6e080e7          	jalr	-402(ra) # 5c24 <fork>
    1dbe:	84aa                	mv	s1,a0
    if(pid < 0){
    1dc0:	02054f63          	bltz	a0,1dfe <createdelete+0x68>
    if(pid == 0){
    1dc4:	c939                	beqz	a0,1e1a <createdelete+0x84>
  for(pi = 0; pi < NCHILD; pi++){
    1dc6:	2905                	addw	s2,s2,1
    1dc8:	ff3917e3          	bne	s2,s3,1db6 <createdelete+0x20>
    1dcc:	4491                	li	s1,4
    wait(&xstatus);
    1dce:	f7c40513          	add	a0,s0,-132
    1dd2:	00004097          	auipc	ra,0x4
    1dd6:	e62080e7          	jalr	-414(ra) # 5c34 <wait>
    if(xstatus != 0)
    1dda:	f7c42903          	lw	s2,-132(s0)
    1dde:	0e091263          	bnez	s2,1ec2 <createdelete+0x12c>
  for(pi = 0; pi < NCHILD; pi++){
    1de2:	34fd                	addw	s1,s1,-1
    1de4:	f4ed                	bnez	s1,1dce <createdelete+0x38>
  name[0] = name[1] = name[2] = 0;
    1de6:	f8040123          	sb	zero,-126(s0)
    1dea:	03000993          	li	s3,48
    1dee:	5a7d                	li	s4,-1
    1df0:	07000c13          	li	s8,112
      if((i == 0 || i >= N/2) && fd < 0){
    1df4:	4b25                	li	s6,9
      } else if((i >= 1 && i < N/2) && fd >= 0){
    1df6:	4ba1                	li	s7,8
    for(pi = 0; pi < NCHILD; pi++){
    1df8:	07400a93          	li	s5,116
    1dfc:	a28d                	j	1f5e <createdelete+0x1c8>
      printf("fork failed\n", s);
    1dfe:	85e6                	mv	a1,s9
    1e00:	00005517          	auipc	a0,0x5
    1e04:	01850513          	add	a0,a0,24 # 6e18 <malloc+0xdcc>
    1e08:	00004097          	auipc	ra,0x4
    1e0c:	18c080e7          	jalr	396(ra) # 5f94 <printf>
      exit(1);
    1e10:	4505                	li	a0,1
    1e12:	00004097          	auipc	ra,0x4
    1e16:	e1a080e7          	jalr	-486(ra) # 5c2c <exit>
      name[0] = 'p' + pi;
    1e1a:	0709091b          	addw	s2,s2,112
    1e1e:	f9240023          	sb	s2,-128(s0)
      name[2] = '\0';
    1e22:	f8040123          	sb	zero,-126(s0)
      for(i = 0; i < N; i++){
    1e26:	4951                	li	s2,20
    1e28:	a015                	j	1e4c <createdelete+0xb6>
          printf("%s: create failed\n", s);
    1e2a:	85e6                	mv	a1,s9
    1e2c:	00005517          	auipc	a0,0x5
    1e30:	c7c50513          	add	a0,a0,-900 # 6aa8 <malloc+0xa5c>
    1e34:	00004097          	auipc	ra,0x4
    1e38:	160080e7          	jalr	352(ra) # 5f94 <printf>
          exit(1);
    1e3c:	4505                	li	a0,1
    1e3e:	00004097          	auipc	ra,0x4
    1e42:	dee080e7          	jalr	-530(ra) # 5c2c <exit>
      for(i = 0; i < N; i++){
    1e46:	2485                	addw	s1,s1,1
    1e48:	07248863          	beq	s1,s2,1eb8 <createdelete+0x122>
        name[1] = '0' + i;
    1e4c:	0304879b          	addw	a5,s1,48
    1e50:	f8f400a3          	sb	a5,-127(s0)
        fd = open(name, O_CREATE | O_RDWR);
    1e54:	20200593          	li	a1,514
    1e58:	f8040513          	add	a0,s0,-128
    1e5c:	00004097          	auipc	ra,0x4
    1e60:	e10080e7          	jalr	-496(ra) # 5c6c <open>
        if(fd < 0){
    1e64:	fc0543e3          	bltz	a0,1e2a <createdelete+0x94>
        close(fd);
    1e68:	00004097          	auipc	ra,0x4
    1e6c:	dec080e7          	jalr	-532(ra) # 5c54 <close>
        if(i > 0 && (i % 2 ) == 0){
    1e70:	12905763          	blez	s1,1f9e <createdelete+0x208>
    1e74:	0014f793          	and	a5,s1,1
    1e78:	f7f9                	bnez	a5,1e46 <createdelete+0xb0>
          name[1] = '0' + (i / 2);
    1e7a:	01f4d79b          	srlw	a5,s1,0x1f
    1e7e:	9fa5                	addw	a5,a5,s1
    1e80:	4017d79b          	sraw	a5,a5,0x1
    1e84:	0307879b          	addw	a5,a5,48
    1e88:	f8f400a3          	sb	a5,-127(s0)
          if(unlink(name) < 0){
    1e8c:	f8040513          	add	a0,s0,-128
    1e90:	00004097          	auipc	ra,0x4
    1e94:	dec080e7          	jalr	-532(ra) # 5c7c <unlink>
    1e98:	fa0557e3          	bgez	a0,1e46 <createdelete+0xb0>
            printf("%s: unlink failed\n", s);
    1e9c:	85e6                	mv	a1,s9
    1e9e:	00005517          	auipc	a0,0x5
    1ea2:	d6250513          	add	a0,a0,-670 # 6c00 <malloc+0xbb4>
    1ea6:	00004097          	auipc	ra,0x4
    1eaa:	0ee080e7          	jalr	238(ra) # 5f94 <printf>
            exit(1);
    1eae:	4505                	li	a0,1
    1eb0:	00004097          	auipc	ra,0x4
    1eb4:	d7c080e7          	jalr	-644(ra) # 5c2c <exit>
      exit(0);
    1eb8:	4501                	li	a0,0
    1eba:	00004097          	auipc	ra,0x4
    1ebe:	d72080e7          	jalr	-654(ra) # 5c2c <exit>
      exit(1);
    1ec2:	4505                	li	a0,1
    1ec4:	00004097          	auipc	ra,0x4
    1ec8:	d68080e7          	jalr	-664(ra) # 5c2c <exit>
        printf("%s: oops createdelete %s didn't exist\n", s, name);
    1ecc:	f8040613          	add	a2,s0,-128
    1ed0:	85e6                	mv	a1,s9
    1ed2:	00005517          	auipc	a0,0x5
    1ed6:	d4650513          	add	a0,a0,-698 # 6c18 <malloc+0xbcc>
    1eda:	00004097          	auipc	ra,0x4
    1ede:	0ba080e7          	jalr	186(ra) # 5f94 <printf>
        exit(1);
    1ee2:	4505                	li	a0,1
    1ee4:	00004097          	auipc	ra,0x4
    1ee8:	d48080e7          	jalr	-696(ra) # 5c2c <exit>
      } else if((i >= 1 && i < N/2) && fd >= 0){
    1eec:	034bff63          	bgeu	s7,s4,1f2a <createdelete+0x194>
      if(fd >= 0)
    1ef0:	02055863          	bgez	a0,1f20 <createdelete+0x18a>
    for(pi = 0; pi < NCHILD; pi++){
    1ef4:	2485                	addw	s1,s1,1
    1ef6:	0ff4f493          	zext.b	s1,s1
    1efa:	05548a63          	beq	s1,s5,1f4e <createdelete+0x1b8>
      name[0] = 'p' + pi;
    1efe:	f8940023          	sb	s1,-128(s0)
      name[1] = '0' + i;
    1f02:	f93400a3          	sb	s3,-127(s0)
      fd = open(name, 0);
    1f06:	4581                	li	a1,0
    1f08:	f8040513          	add	a0,s0,-128
    1f0c:	00004097          	auipc	ra,0x4
    1f10:	d60080e7          	jalr	-672(ra) # 5c6c <open>
      if((i == 0 || i >= N/2) && fd < 0){
    1f14:	00090463          	beqz	s2,1f1c <createdelete+0x186>
    1f18:	fd2b5ae3          	bge	s6,s2,1eec <createdelete+0x156>
    1f1c:	fa0548e3          	bltz	a0,1ecc <createdelete+0x136>
        close(fd);
    1f20:	00004097          	auipc	ra,0x4
    1f24:	d34080e7          	jalr	-716(ra) # 5c54 <close>
    1f28:	b7f1                	j	1ef4 <createdelete+0x15e>
      } else if((i >= 1 && i < N/2) && fd >= 0){
    1f2a:	fc0545e3          	bltz	a0,1ef4 <createdelete+0x15e>
        printf("%s: oops createdelete %s did exist\n", s, name);
    1f2e:	f8040613          	add	a2,s0,-128
    1f32:	85e6                	mv	a1,s9
    1f34:	00005517          	auipc	a0,0x5
    1f38:	d0c50513          	add	a0,a0,-756 # 6c40 <malloc+0xbf4>
    1f3c:	00004097          	auipc	ra,0x4
    1f40:	058080e7          	jalr	88(ra) # 5f94 <printf>
        exit(1);
    1f44:	4505                	li	a0,1
    1f46:	00004097          	auipc	ra,0x4
    1f4a:	ce6080e7          	jalr	-794(ra) # 5c2c <exit>
  for(i = 0; i < N; i++){
    1f4e:	2905                	addw	s2,s2,1
    1f50:	2a05                	addw	s4,s4,1
    1f52:	2985                	addw	s3,s3,1
    1f54:	0ff9f993          	zext.b	s3,s3
    1f58:	47d1                	li	a5,20
    1f5a:	02f90a63          	beq	s2,a5,1f8e <createdelete+0x1f8>
    for(pi = 0; pi < NCHILD; pi++){
    1f5e:	84e2                	mv	s1,s8
    1f60:	bf79                	j	1efe <createdelete+0x168>
  for(i = 0; i < N; i++){
    1f62:	2905                	addw	s2,s2,1
    1f64:	0ff97913          	zext.b	s2,s2
    1f68:	2985                	addw	s3,s3,1
    1f6a:	0ff9f993          	zext.b	s3,s3
    1f6e:	03490a63          	beq	s2,s4,1fa2 <createdelete+0x20c>
  name[0] = name[1] = name[2] = 0;
    1f72:	84d6                	mv	s1,s5
      name[0] = 'p' + i;
    1f74:	f9240023          	sb	s2,-128(s0)
      name[1] = '0' + i;
    1f78:	f93400a3          	sb	s3,-127(s0)
      unlink(name);
    1f7c:	f8040513          	add	a0,s0,-128
    1f80:	00004097          	auipc	ra,0x4
    1f84:	cfc080e7          	jalr	-772(ra) # 5c7c <unlink>
    for(pi = 0; pi < NCHILD; pi++){
    1f88:	34fd                	addw	s1,s1,-1
    1f8a:	f4ed                	bnez	s1,1f74 <createdelete+0x1de>
    1f8c:	bfd9                	j	1f62 <createdelete+0x1cc>
    1f8e:	03000993          	li	s3,48
    1f92:	07000913          	li	s2,112
  name[0] = name[1] = name[2] = 0;
    1f96:	4a91                	li	s5,4
  for(i = 0; i < N; i++){
    1f98:	08400a13          	li	s4,132
    1f9c:	bfd9                	j	1f72 <createdelete+0x1dc>
      for(i = 0; i < N; i++){
    1f9e:	2485                	addw	s1,s1,1
    1fa0:	b575                	j	1e4c <createdelete+0xb6>
}
    1fa2:	60aa                	ld	ra,136(sp)
    1fa4:	640a                	ld	s0,128(sp)
    1fa6:	74e6                	ld	s1,120(sp)
    1fa8:	7946                	ld	s2,112(sp)
    1faa:	79a6                	ld	s3,104(sp)
    1fac:	7a06                	ld	s4,96(sp)
    1fae:	6ae6                	ld	s5,88(sp)
    1fb0:	6b46                	ld	s6,80(sp)
    1fb2:	6ba6                	ld	s7,72(sp)
    1fb4:	6c06                	ld	s8,64(sp)
    1fb6:	7ce2                	ld	s9,56(sp)
    1fb8:	6149                	add	sp,sp,144
    1fba:	8082                	ret

0000000000001fbc <linkunlink>:
{
    1fbc:	711d                	add	sp,sp,-96
    1fbe:	ec86                	sd	ra,88(sp)
    1fc0:	e8a2                	sd	s0,80(sp)
    1fc2:	e4a6                	sd	s1,72(sp)
    1fc4:	e0ca                	sd	s2,64(sp)
    1fc6:	fc4e                	sd	s3,56(sp)
    1fc8:	f852                	sd	s4,48(sp)
    1fca:	f456                	sd	s5,40(sp)
    1fcc:	f05a                	sd	s6,32(sp)
    1fce:	ec5e                	sd	s7,24(sp)
    1fd0:	e862                	sd	s8,16(sp)
    1fd2:	e466                	sd	s9,8(sp)
    1fd4:	1080                	add	s0,sp,96
    1fd6:	84aa                	mv	s1,a0
  unlink("x");
    1fd8:	00004517          	auipc	a0,0x4
    1fdc:	22050513          	add	a0,a0,544 # 61f8 <malloc+0x1ac>
    1fe0:	00004097          	auipc	ra,0x4
    1fe4:	c9c080e7          	jalr	-868(ra) # 5c7c <unlink>
  pid = fork();
    1fe8:	00004097          	auipc	ra,0x4
    1fec:	c3c080e7          	jalr	-964(ra) # 5c24 <fork>
  if(pid < 0){
    1ff0:	02054b63          	bltz	a0,2026 <linkunlink+0x6a>
    1ff4:	8caa                	mv	s9,a0
  unsigned int x = (pid ? 1 : 97);
    1ff6:	06100913          	li	s2,97
    1ffa:	c111                	beqz	a0,1ffe <linkunlink+0x42>
    1ffc:	4905                	li	s2,1
    1ffe:	06400493          	li	s1,100
    x = x * 1103515245 + 12345;
    2002:	41c65a37          	lui	s4,0x41c65
    2006:	e6da0a1b          	addw	s4,s4,-403 # 41c64e6d <base+0x41c551f5>
    200a:	698d                	lui	s3,0x3
    200c:	0399899b          	addw	s3,s3,57 # 3039 <execout+0x89>
    if((x % 3) == 0){
    2010:	4a8d                	li	s5,3
    } else if((x % 3) == 1){
    2012:	4b85                	li	s7,1
      unlink("x");
    2014:	00004b17          	auipc	s6,0x4
    2018:	1e4b0b13          	add	s6,s6,484 # 61f8 <malloc+0x1ac>
      link("cat", "x");
    201c:	00005c17          	auipc	s8,0x5
    2020:	c4cc0c13          	add	s8,s8,-948 # 6c68 <malloc+0xc1c>
    2024:	a825                	j	205c <linkunlink+0xa0>
    printf("%s: fork failed\n", s);
    2026:	85a6                	mv	a1,s1
    2028:	00005517          	auipc	a0,0x5
    202c:	9e850513          	add	a0,a0,-1560 # 6a10 <malloc+0x9c4>
    2030:	00004097          	auipc	ra,0x4
    2034:	f64080e7          	jalr	-156(ra) # 5f94 <printf>
    exit(1);
    2038:	4505                	li	a0,1
    203a:	00004097          	auipc	ra,0x4
    203e:	bf2080e7          	jalr	-1038(ra) # 5c2c <exit>
      close(open("x", O_RDWR | O_CREATE));
    2042:	20200593          	li	a1,514
    2046:	855a                	mv	a0,s6
    2048:	00004097          	auipc	ra,0x4
    204c:	c24080e7          	jalr	-988(ra) # 5c6c <open>
    2050:	00004097          	auipc	ra,0x4
    2054:	c04080e7          	jalr	-1020(ra) # 5c54 <close>
  for(i = 0; i < 100; i++){
    2058:	34fd                	addw	s1,s1,-1
    205a:	c895                	beqz	s1,208e <linkunlink+0xd2>
    x = x * 1103515245 + 12345;
    205c:	034907bb          	mulw	a5,s2,s4
    2060:	013787bb          	addw	a5,a5,s3
    2064:	0007891b          	sext.w	s2,a5
    if((x % 3) == 0){
    2068:	0357f7bb          	remuw	a5,a5,s5
    206c:	2781                	sext.w	a5,a5
    206e:	dbf1                	beqz	a5,2042 <linkunlink+0x86>
    } else if((x % 3) == 1){
    2070:	01778863          	beq	a5,s7,2080 <linkunlink+0xc4>
      unlink("x");
    2074:	855a                	mv	a0,s6
    2076:	00004097          	auipc	ra,0x4
    207a:	c06080e7          	jalr	-1018(ra) # 5c7c <unlink>
    207e:	bfe9                	j	2058 <linkunlink+0x9c>
      link("cat", "x");
    2080:	85da                	mv	a1,s6
    2082:	8562                	mv	a0,s8
    2084:	00004097          	auipc	ra,0x4
    2088:	c08080e7          	jalr	-1016(ra) # 5c8c <link>
    208c:	b7f1                	j	2058 <linkunlink+0x9c>
  if(pid)
    208e:	020c8463          	beqz	s9,20b6 <linkunlink+0xfa>
    wait(0);
    2092:	4501                	li	a0,0
    2094:	00004097          	auipc	ra,0x4
    2098:	ba0080e7          	jalr	-1120(ra) # 5c34 <wait>
}
    209c:	60e6                	ld	ra,88(sp)
    209e:	6446                	ld	s0,80(sp)
    20a0:	64a6                	ld	s1,72(sp)
    20a2:	6906                	ld	s2,64(sp)
    20a4:	79e2                	ld	s3,56(sp)
    20a6:	7a42                	ld	s4,48(sp)
    20a8:	7aa2                	ld	s5,40(sp)
    20aa:	7b02                	ld	s6,32(sp)
    20ac:	6be2                	ld	s7,24(sp)
    20ae:	6c42                	ld	s8,16(sp)
    20b0:	6ca2                	ld	s9,8(sp)
    20b2:	6125                	add	sp,sp,96
    20b4:	8082                	ret
    exit(0);
    20b6:	4501                	li	a0,0
    20b8:	00004097          	auipc	ra,0x4
    20bc:	b74080e7          	jalr	-1164(ra) # 5c2c <exit>

00000000000020c0 <forktest>:
{
    20c0:	7179                	add	sp,sp,-48
    20c2:	f406                	sd	ra,40(sp)
    20c4:	f022                	sd	s0,32(sp)
    20c6:	ec26                	sd	s1,24(sp)
    20c8:	e84a                	sd	s2,16(sp)
    20ca:	e44e                	sd	s3,8(sp)
    20cc:	1800                	add	s0,sp,48
    20ce:	89aa                	mv	s3,a0
  for(n=0; n<N; n++){
    20d0:	4481                	li	s1,0
    20d2:	3e800913          	li	s2,1000
    pid = fork();
    20d6:	00004097          	auipc	ra,0x4
    20da:	b4e080e7          	jalr	-1202(ra) # 5c24 <fork>
    if(pid < 0)
    20de:	08054263          	bltz	a0,2162 <forktest+0xa2>
    if(pid == 0)
    20e2:	c115                	beqz	a0,2106 <forktest+0x46>
  for(n=0; n<N; n++){
    20e4:	2485                	addw	s1,s1,1
    20e6:	ff2498e3          	bne	s1,s2,20d6 <forktest+0x16>
    printf("%s: fork claimed to work 1000 times!\n", s);
    20ea:	85ce                	mv	a1,s3
    20ec:	00005517          	auipc	a0,0x5
    20f0:	bcc50513          	add	a0,a0,-1076 # 6cb8 <malloc+0xc6c>
    20f4:	00004097          	auipc	ra,0x4
    20f8:	ea0080e7          	jalr	-352(ra) # 5f94 <printf>
    exit(1);
    20fc:	4505                	li	a0,1
    20fe:	00004097          	auipc	ra,0x4
    2102:	b2e080e7          	jalr	-1234(ra) # 5c2c <exit>
      exit(0);
    2106:	00004097          	auipc	ra,0x4
    210a:	b26080e7          	jalr	-1242(ra) # 5c2c <exit>
    printf("%s: no fork at all!\n", s);
    210e:	85ce                	mv	a1,s3
    2110:	00005517          	auipc	a0,0x5
    2114:	b6050513          	add	a0,a0,-1184 # 6c70 <malloc+0xc24>
    2118:	00004097          	auipc	ra,0x4
    211c:	e7c080e7          	jalr	-388(ra) # 5f94 <printf>
    exit(1);
    2120:	4505                	li	a0,1
    2122:	00004097          	auipc	ra,0x4
    2126:	b0a080e7          	jalr	-1270(ra) # 5c2c <exit>
      printf("%s: wait stopped early\n", s);
    212a:	85ce                	mv	a1,s3
    212c:	00005517          	auipc	a0,0x5
    2130:	b5c50513          	add	a0,a0,-1188 # 6c88 <malloc+0xc3c>
    2134:	00004097          	auipc	ra,0x4
    2138:	e60080e7          	jalr	-416(ra) # 5f94 <printf>
      exit(1);
    213c:	4505                	li	a0,1
    213e:	00004097          	auipc	ra,0x4
    2142:	aee080e7          	jalr	-1298(ra) # 5c2c <exit>
    printf("%s: wait got too many\n", s);
    2146:	85ce                	mv	a1,s3
    2148:	00005517          	auipc	a0,0x5
    214c:	b5850513          	add	a0,a0,-1192 # 6ca0 <malloc+0xc54>
    2150:	00004097          	auipc	ra,0x4
    2154:	e44080e7          	jalr	-444(ra) # 5f94 <printf>
    exit(1);
    2158:	4505                	li	a0,1
    215a:	00004097          	auipc	ra,0x4
    215e:	ad2080e7          	jalr	-1326(ra) # 5c2c <exit>
  if (n == 0) {
    2162:	d4d5                	beqz	s1,210e <forktest+0x4e>
  for(; n > 0; n--){
    2164:	00905b63          	blez	s1,217a <forktest+0xba>
    if(wait(0) < 0){
    2168:	4501                	li	a0,0
    216a:	00004097          	auipc	ra,0x4
    216e:	aca080e7          	jalr	-1334(ra) # 5c34 <wait>
    2172:	fa054ce3          	bltz	a0,212a <forktest+0x6a>
  for(; n > 0; n--){
    2176:	34fd                	addw	s1,s1,-1
    2178:	f8e5                	bnez	s1,2168 <forktest+0xa8>
  if(wait(0) != -1){
    217a:	4501                	li	a0,0
    217c:	00004097          	auipc	ra,0x4
    2180:	ab8080e7          	jalr	-1352(ra) # 5c34 <wait>
    2184:	57fd                	li	a5,-1
    2186:	fcf510e3          	bne	a0,a5,2146 <forktest+0x86>
}
    218a:	70a2                	ld	ra,40(sp)
    218c:	7402                	ld	s0,32(sp)
    218e:	64e2                	ld	s1,24(sp)
    2190:	6942                	ld	s2,16(sp)
    2192:	69a2                	ld	s3,8(sp)
    2194:	6145                	add	sp,sp,48
    2196:	8082                	ret

0000000000002198 <kernmem>:
{
    2198:	715d                	add	sp,sp,-80
    219a:	e486                	sd	ra,72(sp)
    219c:	e0a2                	sd	s0,64(sp)
    219e:	fc26                	sd	s1,56(sp)
    21a0:	f84a                	sd	s2,48(sp)
    21a2:	f44e                	sd	s3,40(sp)
    21a4:	f052                	sd	s4,32(sp)
    21a6:	ec56                	sd	s5,24(sp)
    21a8:	0880                	add	s0,sp,80
    21aa:	8aaa                	mv	s5,a0
  for(a = (char*)(KERNBASE); a < (char*) (KERNBASE+2000000); a += 50000){
    21ac:	4485                	li	s1,1
    21ae:	04fe                	sll	s1,s1,0x1f
    if(xstatus != -1)  // did kernel kill child?
    21b0:	5a7d                	li	s4,-1
  for(a = (char*)(KERNBASE); a < (char*) (KERNBASE+2000000); a += 50000){
    21b2:	69b1                	lui	s3,0xc
    21b4:	35098993          	add	s3,s3,848 # c350 <uninit+0x1de8>
    21b8:	1003d937          	lui	s2,0x1003d
    21bc:	090e                	sll	s2,s2,0x3
    21be:	48090913          	add	s2,s2,1152 # 1003d480 <base+0x1002d808>
    pid = fork();
    21c2:	00004097          	auipc	ra,0x4
    21c6:	a62080e7          	jalr	-1438(ra) # 5c24 <fork>
    if(pid < 0){
    21ca:	02054963          	bltz	a0,21fc <kernmem+0x64>
    if(pid == 0){
    21ce:	c529                	beqz	a0,2218 <kernmem+0x80>
    wait(&xstatus);
    21d0:	fbc40513          	add	a0,s0,-68
    21d4:	00004097          	auipc	ra,0x4
    21d8:	a60080e7          	jalr	-1440(ra) # 5c34 <wait>
    if(xstatus != -1)  // did kernel kill child?
    21dc:	fbc42783          	lw	a5,-68(s0)
    21e0:	05479d63          	bne	a5,s4,223a <kernmem+0xa2>
  for(a = (char*)(KERNBASE); a < (char*) (KERNBASE+2000000); a += 50000){
    21e4:	94ce                	add	s1,s1,s3
    21e6:	fd249ee3          	bne	s1,s2,21c2 <kernmem+0x2a>
}
    21ea:	60a6                	ld	ra,72(sp)
    21ec:	6406                	ld	s0,64(sp)
    21ee:	74e2                	ld	s1,56(sp)
    21f0:	7942                	ld	s2,48(sp)
    21f2:	79a2                	ld	s3,40(sp)
    21f4:	7a02                	ld	s4,32(sp)
    21f6:	6ae2                	ld	s5,24(sp)
    21f8:	6161                	add	sp,sp,80
    21fa:	8082                	ret
      printf("%s: fork failed\n", s);
    21fc:	85d6                	mv	a1,s5
    21fe:	00005517          	auipc	a0,0x5
    2202:	81250513          	add	a0,a0,-2030 # 6a10 <malloc+0x9c4>
    2206:	00004097          	auipc	ra,0x4
    220a:	d8e080e7          	jalr	-626(ra) # 5f94 <printf>
      exit(1);
    220e:	4505                	li	a0,1
    2210:	00004097          	auipc	ra,0x4
    2214:	a1c080e7          	jalr	-1508(ra) # 5c2c <exit>
      printf("%s: oops could read %x = %x\n", s, a, *a);
    2218:	0004c683          	lbu	a3,0(s1)
    221c:	8626                	mv	a2,s1
    221e:	85d6                	mv	a1,s5
    2220:	00005517          	auipc	a0,0x5
    2224:	ac050513          	add	a0,a0,-1344 # 6ce0 <malloc+0xc94>
    2228:	00004097          	auipc	ra,0x4
    222c:	d6c080e7          	jalr	-660(ra) # 5f94 <printf>
      exit(1);
    2230:	4505                	li	a0,1
    2232:	00004097          	auipc	ra,0x4
    2236:	9fa080e7          	jalr	-1542(ra) # 5c2c <exit>
      exit(1);
    223a:	4505                	li	a0,1
    223c:	00004097          	auipc	ra,0x4
    2240:	9f0080e7          	jalr	-1552(ra) # 5c2c <exit>

0000000000002244 <MAXVAplus>:
{
    2244:	7179                	add	sp,sp,-48
    2246:	f406                	sd	ra,40(sp)
    2248:	f022                	sd	s0,32(sp)
    224a:	1800                	add	s0,sp,48
  volatile uint64 a = MAXVA;
    224c:	4785                	li	a5,1
    224e:	179a                	sll	a5,a5,0x26
    2250:	fcf43c23          	sd	a5,-40(s0)
  for( ; a != 0; a <<= 1){
    2254:	fd843783          	ld	a5,-40(s0)
    2258:	c3a1                	beqz	a5,2298 <MAXVAplus+0x54>
    225a:	ec26                	sd	s1,24(sp)
    225c:	e84a                	sd	s2,16(sp)
    225e:	892a                	mv	s2,a0
    if(xstatus != -1)  // did kernel kill child?
    2260:	54fd                	li	s1,-1
    pid = fork();
    2262:	00004097          	auipc	ra,0x4
    2266:	9c2080e7          	jalr	-1598(ra) # 5c24 <fork>
    if(pid < 0){
    226a:	02054b63          	bltz	a0,22a0 <MAXVAplus+0x5c>
    if(pid == 0){
    226e:	c539                	beqz	a0,22bc <MAXVAplus+0x78>
    wait(&xstatus);
    2270:	fd440513          	add	a0,s0,-44
    2274:	00004097          	auipc	ra,0x4
    2278:	9c0080e7          	jalr	-1600(ra) # 5c34 <wait>
    if(xstatus != -1)  // did kernel kill child?
    227c:	fd442783          	lw	a5,-44(s0)
    2280:	06979463          	bne	a5,s1,22e8 <MAXVAplus+0xa4>
  for( ; a != 0; a <<= 1){
    2284:	fd843783          	ld	a5,-40(s0)
    2288:	0786                	sll	a5,a5,0x1
    228a:	fcf43c23          	sd	a5,-40(s0)
    228e:	fd843783          	ld	a5,-40(s0)
    2292:	fbe1                	bnez	a5,2262 <MAXVAplus+0x1e>
    2294:	64e2                	ld	s1,24(sp)
    2296:	6942                	ld	s2,16(sp)
}
    2298:	70a2                	ld	ra,40(sp)
    229a:	7402                	ld	s0,32(sp)
    229c:	6145                	add	sp,sp,48
    229e:	8082                	ret
      printf("%s: fork failed\n", s);
    22a0:	85ca                	mv	a1,s2
    22a2:	00004517          	auipc	a0,0x4
    22a6:	76e50513          	add	a0,a0,1902 # 6a10 <malloc+0x9c4>
    22aa:	00004097          	auipc	ra,0x4
    22ae:	cea080e7          	jalr	-790(ra) # 5f94 <printf>
      exit(1);
    22b2:	4505                	li	a0,1
    22b4:	00004097          	auipc	ra,0x4
    22b8:	978080e7          	jalr	-1672(ra) # 5c2c <exit>
      *(char*)a = 99;
    22bc:	fd843783          	ld	a5,-40(s0)
    22c0:	06300713          	li	a4,99
    22c4:	00e78023          	sb	a4,0(a5)
      printf("%s: oops wrote %x\n", s, a);
    22c8:	fd843603          	ld	a2,-40(s0)
    22cc:	85ca                	mv	a1,s2
    22ce:	00005517          	auipc	a0,0x5
    22d2:	a3250513          	add	a0,a0,-1486 # 6d00 <malloc+0xcb4>
    22d6:	00004097          	auipc	ra,0x4
    22da:	cbe080e7          	jalr	-834(ra) # 5f94 <printf>
      exit(1);
    22de:	4505                	li	a0,1
    22e0:	00004097          	auipc	ra,0x4
    22e4:	94c080e7          	jalr	-1716(ra) # 5c2c <exit>
      exit(1);
    22e8:	4505                	li	a0,1
    22ea:	00004097          	auipc	ra,0x4
    22ee:	942080e7          	jalr	-1726(ra) # 5c2c <exit>

00000000000022f2 <bigargtest>:
{
    22f2:	7179                	add	sp,sp,-48
    22f4:	f406                	sd	ra,40(sp)
    22f6:	f022                	sd	s0,32(sp)
    22f8:	ec26                	sd	s1,24(sp)
    22fa:	1800                	add	s0,sp,48
    22fc:	84aa                	mv	s1,a0
  unlink("bigarg-ok");
    22fe:	00005517          	auipc	a0,0x5
    2302:	a1a50513          	add	a0,a0,-1510 # 6d18 <malloc+0xccc>
    2306:	00004097          	auipc	ra,0x4
    230a:	976080e7          	jalr	-1674(ra) # 5c7c <unlink>
  pid = fork();
    230e:	00004097          	auipc	ra,0x4
    2312:	916080e7          	jalr	-1770(ra) # 5c24 <fork>
  if(pid == 0){
    2316:	c121                	beqz	a0,2356 <bigargtest+0x64>
  } else if(pid < 0){
    2318:	0a054063          	bltz	a0,23b8 <bigargtest+0xc6>
  wait(&xstatus);
    231c:	fdc40513          	add	a0,s0,-36
    2320:	00004097          	auipc	ra,0x4
    2324:	914080e7          	jalr	-1772(ra) # 5c34 <wait>
  if(xstatus != 0)
    2328:	fdc42503          	lw	a0,-36(s0)
    232c:	e545                	bnez	a0,23d4 <bigargtest+0xe2>
  fd = open("bigarg-ok", 0);
    232e:	4581                	li	a1,0
    2330:	00005517          	auipc	a0,0x5
    2334:	9e850513          	add	a0,a0,-1560 # 6d18 <malloc+0xccc>
    2338:	00004097          	auipc	ra,0x4
    233c:	934080e7          	jalr	-1740(ra) # 5c6c <open>
  if(fd < 0){
    2340:	08054e63          	bltz	a0,23dc <bigargtest+0xea>
  close(fd);
    2344:	00004097          	auipc	ra,0x4
    2348:	910080e7          	jalr	-1776(ra) # 5c54 <close>
}
    234c:	70a2                	ld	ra,40(sp)
    234e:	7402                	ld	s0,32(sp)
    2350:	64e2                	ld	s1,24(sp)
    2352:	6145                	add	sp,sp,48
    2354:	8082                	ret
    2356:	00007797          	auipc	a5,0x7
    235a:	10a78793          	add	a5,a5,266 # 9460 <args.1>
    235e:	00007697          	auipc	a3,0x7
    2362:	1fa68693          	add	a3,a3,506 # 9558 <args.1+0xf8>
      args[i] = "bigargs test: failed\n                                                                                                                                                                                                       ";
    2366:	00005717          	auipc	a4,0x5
    236a:	9c270713          	add	a4,a4,-1598 # 6d28 <malloc+0xcdc>
    236e:	e398                	sd	a4,0(a5)
    for(i = 0; i < MAXARG-1; i++)
    2370:	07a1                	add	a5,a5,8
    2372:	fed79ee3          	bne	a5,a3,236e <bigargtest+0x7c>
    args[MAXARG-1] = 0;
    2376:	00007597          	auipc	a1,0x7
    237a:	0ea58593          	add	a1,a1,234 # 9460 <args.1>
    237e:	0e05bc23          	sd	zero,248(a1)
    exec("echo", args);
    2382:	00004517          	auipc	a0,0x4
    2386:	e0650513          	add	a0,a0,-506 # 6188 <malloc+0x13c>
    238a:	00004097          	auipc	ra,0x4
    238e:	8da080e7          	jalr	-1830(ra) # 5c64 <exec>
    fd = open("bigarg-ok", O_CREATE);
    2392:	20000593          	li	a1,512
    2396:	00005517          	auipc	a0,0x5
    239a:	98250513          	add	a0,a0,-1662 # 6d18 <malloc+0xccc>
    239e:	00004097          	auipc	ra,0x4
    23a2:	8ce080e7          	jalr	-1842(ra) # 5c6c <open>
    close(fd);
    23a6:	00004097          	auipc	ra,0x4
    23aa:	8ae080e7          	jalr	-1874(ra) # 5c54 <close>
    exit(0);
    23ae:	4501                	li	a0,0
    23b0:	00004097          	auipc	ra,0x4
    23b4:	87c080e7          	jalr	-1924(ra) # 5c2c <exit>
    printf("%s: bigargtest: fork failed\n", s);
    23b8:	85a6                	mv	a1,s1
    23ba:	00005517          	auipc	a0,0x5
    23be:	a4e50513          	add	a0,a0,-1458 # 6e08 <malloc+0xdbc>
    23c2:	00004097          	auipc	ra,0x4
    23c6:	bd2080e7          	jalr	-1070(ra) # 5f94 <printf>
    exit(1);
    23ca:	4505                	li	a0,1
    23cc:	00004097          	auipc	ra,0x4
    23d0:	860080e7          	jalr	-1952(ra) # 5c2c <exit>
    exit(xstatus);
    23d4:	00004097          	auipc	ra,0x4
    23d8:	858080e7          	jalr	-1960(ra) # 5c2c <exit>
    printf("%s: bigarg test failed!\n", s);
    23dc:	85a6                	mv	a1,s1
    23de:	00005517          	auipc	a0,0x5
    23e2:	a4a50513          	add	a0,a0,-1462 # 6e28 <malloc+0xddc>
    23e6:	00004097          	auipc	ra,0x4
    23ea:	bae080e7          	jalr	-1106(ra) # 5f94 <printf>
    exit(1);
    23ee:	4505                	li	a0,1
    23f0:	00004097          	auipc	ra,0x4
    23f4:	83c080e7          	jalr	-1988(ra) # 5c2c <exit>

00000000000023f8 <stacktest>:
{
    23f8:	7179                	add	sp,sp,-48
    23fa:	f406                	sd	ra,40(sp)
    23fc:	f022                	sd	s0,32(sp)
    23fe:	ec26                	sd	s1,24(sp)
    2400:	1800                	add	s0,sp,48
    2402:	84aa                	mv	s1,a0
  pid = fork();
    2404:	00004097          	auipc	ra,0x4
    2408:	820080e7          	jalr	-2016(ra) # 5c24 <fork>
  if(pid == 0) {
    240c:	c115                	beqz	a0,2430 <stacktest+0x38>
  } else if(pid < 0){
    240e:	04054463          	bltz	a0,2456 <stacktest+0x5e>
  wait(&xstatus);
    2412:	fdc40513          	add	a0,s0,-36
    2416:	00004097          	auipc	ra,0x4
    241a:	81e080e7          	jalr	-2018(ra) # 5c34 <wait>
  if(xstatus == -1)  // kernel killed child?
    241e:	fdc42503          	lw	a0,-36(s0)
    2422:	57fd                	li	a5,-1
    2424:	04f50763          	beq	a0,a5,2472 <stacktest+0x7a>
    exit(xstatus);
    2428:	00004097          	auipc	ra,0x4
    242c:	804080e7          	jalr	-2044(ra) # 5c2c <exit>

static inline uint64
r_sp()
{
  uint64 x;
  asm volatile("mv %0, sp" : "=r" (x) );
    2430:	870a                	mv	a4,sp
    printf("%s: stacktest: read below stack %p\n", s, *sp);
    2432:	77fd                	lui	a5,0xfffff
    2434:	97ba                	add	a5,a5,a4
    2436:	0007c603          	lbu	a2,0(a5) # fffffffffffff000 <base+0xfffffffffffef388>
    243a:	85a6                	mv	a1,s1
    243c:	00005517          	auipc	a0,0x5
    2440:	a0c50513          	add	a0,a0,-1524 # 6e48 <malloc+0xdfc>
    2444:	00004097          	auipc	ra,0x4
    2448:	b50080e7          	jalr	-1200(ra) # 5f94 <printf>
    exit(1);
    244c:	4505                	li	a0,1
    244e:	00003097          	auipc	ra,0x3
    2452:	7de080e7          	jalr	2014(ra) # 5c2c <exit>
    printf("%s: fork failed\n", s);
    2456:	85a6                	mv	a1,s1
    2458:	00004517          	auipc	a0,0x4
    245c:	5b850513          	add	a0,a0,1464 # 6a10 <malloc+0x9c4>
    2460:	00004097          	auipc	ra,0x4
    2464:	b34080e7          	jalr	-1228(ra) # 5f94 <printf>
    exit(1);
    2468:	4505                	li	a0,1
    246a:	00003097          	auipc	ra,0x3
    246e:	7c2080e7          	jalr	1986(ra) # 5c2c <exit>
    exit(0);
    2472:	4501                	li	a0,0
    2474:	00003097          	auipc	ra,0x3
    2478:	7b8080e7          	jalr	1976(ra) # 5c2c <exit>

000000000000247c <textwrite>:
{
    247c:	7179                	add	sp,sp,-48
    247e:	f406                	sd	ra,40(sp)
    2480:	f022                	sd	s0,32(sp)
    2482:	ec26                	sd	s1,24(sp)
    2484:	1800                	add	s0,sp,48
    2486:	84aa                	mv	s1,a0
  pid = fork();
    2488:	00003097          	auipc	ra,0x3
    248c:	79c080e7          	jalr	1948(ra) # 5c24 <fork>
  if(pid == 0) {
    2490:	c115                	beqz	a0,24b4 <textwrite+0x38>
  } else if(pid < 0){
    2492:	02054963          	bltz	a0,24c4 <textwrite+0x48>
  wait(&xstatus);
    2496:	fdc40513          	add	a0,s0,-36
    249a:	00003097          	auipc	ra,0x3
    249e:	79a080e7          	jalr	1946(ra) # 5c34 <wait>
  if(xstatus == -1)  // kernel killed child?
    24a2:	fdc42503          	lw	a0,-36(s0)
    24a6:	57fd                	li	a5,-1
    24a8:	02f50c63          	beq	a0,a5,24e0 <textwrite+0x64>
    exit(xstatus);
    24ac:	00003097          	auipc	ra,0x3
    24b0:	780080e7          	jalr	1920(ra) # 5c2c <exit>
    *addr = 10;
    24b4:	47a9                	li	a5,10
    24b6:	00f02023          	sw	a5,0(zero) # 0 <copyinstr1>
    exit(1);
    24ba:	4505                	li	a0,1
    24bc:	00003097          	auipc	ra,0x3
    24c0:	770080e7          	jalr	1904(ra) # 5c2c <exit>
    printf("%s: fork failed\n", s);
    24c4:	85a6                	mv	a1,s1
    24c6:	00004517          	auipc	a0,0x4
    24ca:	54a50513          	add	a0,a0,1354 # 6a10 <malloc+0x9c4>
    24ce:	00004097          	auipc	ra,0x4
    24d2:	ac6080e7          	jalr	-1338(ra) # 5f94 <printf>
    exit(1);
    24d6:	4505                	li	a0,1
    24d8:	00003097          	auipc	ra,0x3
    24dc:	754080e7          	jalr	1876(ra) # 5c2c <exit>
    exit(0);
    24e0:	4501                	li	a0,0
    24e2:	00003097          	auipc	ra,0x3
    24e6:	74a080e7          	jalr	1866(ra) # 5c2c <exit>

00000000000024ea <manywrites>:
{
    24ea:	711d                	add	sp,sp,-96
    24ec:	ec86                	sd	ra,88(sp)
    24ee:	e8a2                	sd	s0,80(sp)
    24f0:	e4a6                	sd	s1,72(sp)
    24f2:	e0ca                	sd	s2,64(sp)
    24f4:	fc4e                	sd	s3,56(sp)
    24f6:	f456                	sd	s5,40(sp)
    24f8:	1080                	add	s0,sp,96
    24fa:	8aaa                	mv	s5,a0
  for(int ci = 0; ci < nchildren; ci++){
    24fc:	4981                	li	s3,0
    24fe:	4911                	li	s2,4
    int pid = fork();
    2500:	00003097          	auipc	ra,0x3
    2504:	724080e7          	jalr	1828(ra) # 5c24 <fork>
    2508:	84aa                	mv	s1,a0
    if(pid < 0){
    250a:	02054d63          	bltz	a0,2544 <manywrites+0x5a>
    if(pid == 0){
    250e:	c939                	beqz	a0,2564 <manywrites+0x7a>
  for(int ci = 0; ci < nchildren; ci++){
    2510:	2985                	addw	s3,s3,1
    2512:	ff2997e3          	bne	s3,s2,2500 <manywrites+0x16>
    2516:	f852                	sd	s4,48(sp)
    2518:	f05a                	sd	s6,32(sp)
    251a:	ec5e                	sd	s7,24(sp)
    251c:	4491                	li	s1,4
    int st = 0;
    251e:	fa042423          	sw	zero,-88(s0)
    wait(&st);
    2522:	fa840513          	add	a0,s0,-88
    2526:	00003097          	auipc	ra,0x3
    252a:	70e080e7          	jalr	1806(ra) # 5c34 <wait>
    if(st != 0)
    252e:	fa842503          	lw	a0,-88(s0)
    2532:	10051463          	bnez	a0,263a <manywrites+0x150>
  for(int ci = 0; ci < nchildren; ci++){
    2536:	34fd                	addw	s1,s1,-1
    2538:	f0fd                	bnez	s1,251e <manywrites+0x34>
  exit(0);
    253a:	4501                	li	a0,0
    253c:	00003097          	auipc	ra,0x3
    2540:	6f0080e7          	jalr	1776(ra) # 5c2c <exit>
    2544:	f852                	sd	s4,48(sp)
    2546:	f05a                	sd	s6,32(sp)
    2548:	ec5e                	sd	s7,24(sp)
      printf("fork failed\n");
    254a:	00005517          	auipc	a0,0x5
    254e:	8ce50513          	add	a0,a0,-1842 # 6e18 <malloc+0xdcc>
    2552:	00004097          	auipc	ra,0x4
    2556:	a42080e7          	jalr	-1470(ra) # 5f94 <printf>
      exit(1);
    255a:	4505                	li	a0,1
    255c:	00003097          	auipc	ra,0x3
    2560:	6d0080e7          	jalr	1744(ra) # 5c2c <exit>
    2564:	f852                	sd	s4,48(sp)
    2566:	f05a                	sd	s6,32(sp)
    2568:	ec5e                	sd	s7,24(sp)
      name[0] = 'b';
    256a:	06200793          	li	a5,98
    256e:	faf40423          	sb	a5,-88(s0)
      name[1] = 'a' + ci;
    2572:	0619879b          	addw	a5,s3,97
    2576:	faf404a3          	sb	a5,-87(s0)
      name[2] = '\0';
    257a:	fa040523          	sb	zero,-86(s0)
      unlink(name);
    257e:	fa840513          	add	a0,s0,-88
    2582:	00003097          	auipc	ra,0x3
    2586:	6fa080e7          	jalr	1786(ra) # 5c7c <unlink>
    258a:	4bf9                	li	s7,30
          int cc = write(fd, buf, sz);
    258c:	0000ab17          	auipc	s6,0xa
    2590:	6ecb0b13          	add	s6,s6,1772 # cc78 <buf>
        for(int i = 0; i < ci+1; i++){
    2594:	8a26                	mv	s4,s1
    2596:	0209ce63          	bltz	s3,25d2 <manywrites+0xe8>
          int fd = open(name, O_CREATE | O_RDWR);
    259a:	20200593          	li	a1,514
    259e:	fa840513          	add	a0,s0,-88
    25a2:	00003097          	auipc	ra,0x3
    25a6:	6ca080e7          	jalr	1738(ra) # 5c6c <open>
    25aa:	892a                	mv	s2,a0
          if(fd < 0){
    25ac:	04054763          	bltz	a0,25fa <manywrites+0x110>
          int cc = write(fd, buf, sz);
    25b0:	660d                	lui	a2,0x3
    25b2:	85da                	mv	a1,s6
    25b4:	00003097          	auipc	ra,0x3
    25b8:	698080e7          	jalr	1688(ra) # 5c4c <write>
          if(cc != sz){
    25bc:	678d                	lui	a5,0x3
    25be:	04f51e63          	bne	a0,a5,261a <manywrites+0x130>
          close(fd);
    25c2:	854a                	mv	a0,s2
    25c4:	00003097          	auipc	ra,0x3
    25c8:	690080e7          	jalr	1680(ra) # 5c54 <close>
        for(int i = 0; i < ci+1; i++){
    25cc:	2a05                	addw	s4,s4,1
    25ce:	fd49d6e3          	bge	s3,s4,259a <manywrites+0xb0>
        unlink(name);
    25d2:	fa840513          	add	a0,s0,-88
    25d6:	00003097          	auipc	ra,0x3
    25da:	6a6080e7          	jalr	1702(ra) # 5c7c <unlink>
      for(int iters = 0; iters < howmany; iters++){
    25de:	3bfd                	addw	s7,s7,-1
    25e0:	fa0b9ae3          	bnez	s7,2594 <manywrites+0xaa>
      unlink(name);
    25e4:	fa840513          	add	a0,s0,-88
    25e8:	00003097          	auipc	ra,0x3
    25ec:	694080e7          	jalr	1684(ra) # 5c7c <unlink>
      exit(0);
    25f0:	4501                	li	a0,0
    25f2:	00003097          	auipc	ra,0x3
    25f6:	63a080e7          	jalr	1594(ra) # 5c2c <exit>
            printf("%s: cannot create %s\n", s, name);
    25fa:	fa840613          	add	a2,s0,-88
    25fe:	85d6                	mv	a1,s5
    2600:	00005517          	auipc	a0,0x5
    2604:	87050513          	add	a0,a0,-1936 # 6e70 <malloc+0xe24>
    2608:	00004097          	auipc	ra,0x4
    260c:	98c080e7          	jalr	-1652(ra) # 5f94 <printf>
            exit(1);
    2610:	4505                	li	a0,1
    2612:	00003097          	auipc	ra,0x3
    2616:	61a080e7          	jalr	1562(ra) # 5c2c <exit>
            printf("%s: write(%d) ret %d\n", s, sz, cc);
    261a:	86aa                	mv	a3,a0
    261c:	660d                	lui	a2,0x3
    261e:	85d6                	mv	a1,s5
    2620:	00004517          	auipc	a0,0x4
    2624:	c3850513          	add	a0,a0,-968 # 6258 <malloc+0x20c>
    2628:	00004097          	auipc	ra,0x4
    262c:	96c080e7          	jalr	-1684(ra) # 5f94 <printf>
            exit(1);
    2630:	4505                	li	a0,1
    2632:	00003097          	auipc	ra,0x3
    2636:	5fa080e7          	jalr	1530(ra) # 5c2c <exit>
      exit(st);
    263a:	00003097          	auipc	ra,0x3
    263e:	5f2080e7          	jalr	1522(ra) # 5c2c <exit>

0000000000002642 <copyinstr3>:
{
    2642:	7179                	add	sp,sp,-48
    2644:	f406                	sd	ra,40(sp)
    2646:	f022                	sd	s0,32(sp)
    2648:	ec26                	sd	s1,24(sp)
    264a:	1800                	add	s0,sp,48
  sbrk(8192);
    264c:	6509                	lui	a0,0x2
    264e:	00003097          	auipc	ra,0x3
    2652:	666080e7          	jalr	1638(ra) # 5cb4 <sbrk>
  uint64 top = (uint64) sbrk(0);
    2656:	4501                	li	a0,0
    2658:	00003097          	auipc	ra,0x3
    265c:	65c080e7          	jalr	1628(ra) # 5cb4 <sbrk>
  if((top % PGSIZE) != 0){
    2660:	03451793          	sll	a5,a0,0x34
    2664:	e3c9                	bnez	a5,26e6 <copyinstr3+0xa4>
  top = (uint64) sbrk(0);
    2666:	4501                	li	a0,0
    2668:	00003097          	auipc	ra,0x3
    266c:	64c080e7          	jalr	1612(ra) # 5cb4 <sbrk>
  if(top % PGSIZE){
    2670:	03451793          	sll	a5,a0,0x34
    2674:	e3d9                	bnez	a5,26fa <copyinstr3+0xb8>
  char *b = (char *) (top - 1);
    2676:	fff50493          	add	s1,a0,-1 # 1fff <linkunlink+0x43>
  *b = 'x';
    267a:	07800793          	li	a5,120
    267e:	fef50fa3          	sb	a5,-1(a0)
  int ret = unlink(b);
    2682:	8526                	mv	a0,s1
    2684:	00003097          	auipc	ra,0x3
    2688:	5f8080e7          	jalr	1528(ra) # 5c7c <unlink>
  if(ret != -1){
    268c:	57fd                	li	a5,-1
    268e:	08f51363          	bne	a0,a5,2714 <copyinstr3+0xd2>
  int fd = open(b, O_CREATE | O_WRONLY);
    2692:	20100593          	li	a1,513
    2696:	8526                	mv	a0,s1
    2698:	00003097          	auipc	ra,0x3
    269c:	5d4080e7          	jalr	1492(ra) # 5c6c <open>
  if(fd != -1){
    26a0:	57fd                	li	a5,-1
    26a2:	08f51863          	bne	a0,a5,2732 <copyinstr3+0xf0>
  ret = link(b, b);
    26a6:	85a6                	mv	a1,s1
    26a8:	8526                	mv	a0,s1
    26aa:	00003097          	auipc	ra,0x3
    26ae:	5e2080e7          	jalr	1506(ra) # 5c8c <link>
  if(ret != -1){
    26b2:	57fd                	li	a5,-1
    26b4:	08f51e63          	bne	a0,a5,2750 <copyinstr3+0x10e>
  char *args[] = { "xx", 0 };
    26b8:	00005797          	auipc	a5,0x5
    26bc:	4b078793          	add	a5,a5,1200 # 7b68 <malloc+0x1b1c>
    26c0:	fcf43823          	sd	a5,-48(s0)
    26c4:	fc043c23          	sd	zero,-40(s0)
  ret = exec(b, args);
    26c8:	fd040593          	add	a1,s0,-48
    26cc:	8526                	mv	a0,s1
    26ce:	00003097          	auipc	ra,0x3
    26d2:	596080e7          	jalr	1430(ra) # 5c64 <exec>
  if(ret != -1){
    26d6:	57fd                	li	a5,-1
    26d8:	08f51c63          	bne	a0,a5,2770 <copyinstr3+0x12e>
}
    26dc:	70a2                	ld	ra,40(sp)
    26de:	7402                	ld	s0,32(sp)
    26e0:	64e2                	ld	s1,24(sp)
    26e2:	6145                	add	sp,sp,48
    26e4:	8082                	ret
    sbrk(PGSIZE - (top % PGSIZE));
    26e6:	0347d513          	srl	a0,a5,0x34
    26ea:	6785                	lui	a5,0x1
    26ec:	40a7853b          	subw	a0,a5,a0
    26f0:	00003097          	auipc	ra,0x3
    26f4:	5c4080e7          	jalr	1476(ra) # 5cb4 <sbrk>
    26f8:	b7bd                	j	2666 <copyinstr3+0x24>
    printf("oops\n");
    26fa:	00004517          	auipc	a0,0x4
    26fe:	78e50513          	add	a0,a0,1934 # 6e88 <malloc+0xe3c>
    2702:	00004097          	auipc	ra,0x4
    2706:	892080e7          	jalr	-1902(ra) # 5f94 <printf>
    exit(1);
    270a:	4505                	li	a0,1
    270c:	00003097          	auipc	ra,0x3
    2710:	520080e7          	jalr	1312(ra) # 5c2c <exit>
    printf("unlink(%s) returned %d, not -1\n", b, ret);
    2714:	862a                	mv	a2,a0
    2716:	85a6                	mv	a1,s1
    2718:	00004517          	auipc	a0,0x4
    271c:	21850513          	add	a0,a0,536 # 6930 <malloc+0x8e4>
    2720:	00004097          	auipc	ra,0x4
    2724:	874080e7          	jalr	-1932(ra) # 5f94 <printf>
    exit(1);
    2728:	4505                	li	a0,1
    272a:	00003097          	auipc	ra,0x3
    272e:	502080e7          	jalr	1282(ra) # 5c2c <exit>
    printf("open(%s) returned %d, not -1\n", b, fd);
    2732:	862a                	mv	a2,a0
    2734:	85a6                	mv	a1,s1
    2736:	00004517          	auipc	a0,0x4
    273a:	21a50513          	add	a0,a0,538 # 6950 <malloc+0x904>
    273e:	00004097          	auipc	ra,0x4
    2742:	856080e7          	jalr	-1962(ra) # 5f94 <printf>
    exit(1);
    2746:	4505                	li	a0,1
    2748:	00003097          	auipc	ra,0x3
    274c:	4e4080e7          	jalr	1252(ra) # 5c2c <exit>
    printf("link(%s, %s) returned %d, not -1\n", b, b, ret);
    2750:	86aa                	mv	a3,a0
    2752:	8626                	mv	a2,s1
    2754:	85a6                	mv	a1,s1
    2756:	00004517          	auipc	a0,0x4
    275a:	21a50513          	add	a0,a0,538 # 6970 <malloc+0x924>
    275e:	00004097          	auipc	ra,0x4
    2762:	836080e7          	jalr	-1994(ra) # 5f94 <printf>
    exit(1);
    2766:	4505                	li	a0,1
    2768:	00003097          	auipc	ra,0x3
    276c:	4c4080e7          	jalr	1220(ra) # 5c2c <exit>
    printf("exec(%s) returned %d, not -1\n", b, fd);
    2770:	567d                	li	a2,-1
    2772:	85a6                	mv	a1,s1
    2774:	00004517          	auipc	a0,0x4
    2778:	22450513          	add	a0,a0,548 # 6998 <malloc+0x94c>
    277c:	00004097          	auipc	ra,0x4
    2780:	818080e7          	jalr	-2024(ra) # 5f94 <printf>
    exit(1);
    2784:	4505                	li	a0,1
    2786:	00003097          	auipc	ra,0x3
    278a:	4a6080e7          	jalr	1190(ra) # 5c2c <exit>

000000000000278e <rwsbrk>:
{
    278e:	1101                	add	sp,sp,-32
    2790:	ec06                	sd	ra,24(sp)
    2792:	e822                	sd	s0,16(sp)
    2794:	1000                	add	s0,sp,32
  uint64 a = (uint64) sbrk(8192);
    2796:	6509                	lui	a0,0x2
    2798:	00003097          	auipc	ra,0x3
    279c:	51c080e7          	jalr	1308(ra) # 5cb4 <sbrk>
  if(a == 0xffffffffffffffffLL) {
    27a0:	57fd                	li	a5,-1
    27a2:	06f50463          	beq	a0,a5,280a <rwsbrk+0x7c>
    27a6:	e426                	sd	s1,8(sp)
    27a8:	84aa                	mv	s1,a0
  if ((uint64) sbrk(-8192) ==  0xffffffffffffffffLL) {
    27aa:	7579                	lui	a0,0xffffe
    27ac:	00003097          	auipc	ra,0x3
    27b0:	508080e7          	jalr	1288(ra) # 5cb4 <sbrk>
    27b4:	57fd                	li	a5,-1
    27b6:	06f50963          	beq	a0,a5,2828 <rwsbrk+0x9a>
    27ba:	e04a                	sd	s2,0(sp)
  fd = open("rwsbrk", O_CREATE|O_WRONLY);
    27bc:	20100593          	li	a1,513
    27c0:	00004517          	auipc	a0,0x4
    27c4:	70850513          	add	a0,a0,1800 # 6ec8 <malloc+0xe7c>
    27c8:	00003097          	auipc	ra,0x3
    27cc:	4a4080e7          	jalr	1188(ra) # 5c6c <open>
    27d0:	892a                	mv	s2,a0
  if(fd < 0){
    27d2:	06054963          	bltz	a0,2844 <rwsbrk+0xb6>
  n = write(fd, (void*)(a+4096), 1024);
    27d6:	6785                	lui	a5,0x1
    27d8:	94be                	add	s1,s1,a5
    27da:	40000613          	li	a2,1024
    27de:	85a6                	mv	a1,s1
    27e0:	00003097          	auipc	ra,0x3
    27e4:	46c080e7          	jalr	1132(ra) # 5c4c <write>
    27e8:	862a                	mv	a2,a0
  if(n >= 0){
    27ea:	06054a63          	bltz	a0,285e <rwsbrk+0xd0>
    printf("write(fd, %p, 1024) returned %d, not -1\n", a+4096, n);
    27ee:	85a6                	mv	a1,s1
    27f0:	00004517          	auipc	a0,0x4
    27f4:	6f850513          	add	a0,a0,1784 # 6ee8 <malloc+0xe9c>
    27f8:	00003097          	auipc	ra,0x3
    27fc:	79c080e7          	jalr	1948(ra) # 5f94 <printf>
    exit(1);
    2800:	4505                	li	a0,1
    2802:	00003097          	auipc	ra,0x3
    2806:	42a080e7          	jalr	1066(ra) # 5c2c <exit>
    280a:	e426                	sd	s1,8(sp)
    280c:	e04a                	sd	s2,0(sp)
    printf("sbrk(rwsbrk) failed\n");
    280e:	00004517          	auipc	a0,0x4
    2812:	68250513          	add	a0,a0,1666 # 6e90 <malloc+0xe44>
    2816:	00003097          	auipc	ra,0x3
    281a:	77e080e7          	jalr	1918(ra) # 5f94 <printf>
    exit(1);
    281e:	4505                	li	a0,1
    2820:	00003097          	auipc	ra,0x3
    2824:	40c080e7          	jalr	1036(ra) # 5c2c <exit>
    2828:	e04a                	sd	s2,0(sp)
    printf("sbrk(rwsbrk) shrink failed\n");
    282a:	00004517          	auipc	a0,0x4
    282e:	67e50513          	add	a0,a0,1662 # 6ea8 <malloc+0xe5c>
    2832:	00003097          	auipc	ra,0x3
    2836:	762080e7          	jalr	1890(ra) # 5f94 <printf>
    exit(1);
    283a:	4505                	li	a0,1
    283c:	00003097          	auipc	ra,0x3
    2840:	3f0080e7          	jalr	1008(ra) # 5c2c <exit>
    printf("open(rwsbrk) failed\n");
    2844:	00004517          	auipc	a0,0x4
    2848:	68c50513          	add	a0,a0,1676 # 6ed0 <malloc+0xe84>
    284c:	00003097          	auipc	ra,0x3
    2850:	748080e7          	jalr	1864(ra) # 5f94 <printf>
    exit(1);
    2854:	4505                	li	a0,1
    2856:	00003097          	auipc	ra,0x3
    285a:	3d6080e7          	jalr	982(ra) # 5c2c <exit>
  close(fd);
    285e:	854a                	mv	a0,s2
    2860:	00003097          	auipc	ra,0x3
    2864:	3f4080e7          	jalr	1012(ra) # 5c54 <close>
  unlink("rwsbrk");
    2868:	00004517          	auipc	a0,0x4
    286c:	66050513          	add	a0,a0,1632 # 6ec8 <malloc+0xe7c>
    2870:	00003097          	auipc	ra,0x3
    2874:	40c080e7          	jalr	1036(ra) # 5c7c <unlink>
  fd = open("README", O_RDONLY);
    2878:	4581                	li	a1,0
    287a:	00004517          	auipc	a0,0x4
    287e:	ae650513          	add	a0,a0,-1306 # 6360 <malloc+0x314>
    2882:	00003097          	auipc	ra,0x3
    2886:	3ea080e7          	jalr	1002(ra) # 5c6c <open>
    288a:	892a                	mv	s2,a0
  if(fd < 0){
    288c:	02054963          	bltz	a0,28be <rwsbrk+0x130>
  n = read(fd, (void*)(a+4096), 10);
    2890:	4629                	li	a2,10
    2892:	85a6                	mv	a1,s1
    2894:	00003097          	auipc	ra,0x3
    2898:	3b0080e7          	jalr	944(ra) # 5c44 <read>
    289c:	862a                	mv	a2,a0
  if(n >= 0){
    289e:	02054d63          	bltz	a0,28d8 <rwsbrk+0x14a>
    printf("read(fd, %p, 10) returned %d, not -1\n", a+4096, n);
    28a2:	85a6                	mv	a1,s1
    28a4:	00004517          	auipc	a0,0x4
    28a8:	67450513          	add	a0,a0,1652 # 6f18 <malloc+0xecc>
    28ac:	00003097          	auipc	ra,0x3
    28b0:	6e8080e7          	jalr	1768(ra) # 5f94 <printf>
    exit(1);
    28b4:	4505                	li	a0,1
    28b6:	00003097          	auipc	ra,0x3
    28ba:	376080e7          	jalr	886(ra) # 5c2c <exit>
    printf("open(rwsbrk) failed\n");
    28be:	00004517          	auipc	a0,0x4
    28c2:	61250513          	add	a0,a0,1554 # 6ed0 <malloc+0xe84>
    28c6:	00003097          	auipc	ra,0x3
    28ca:	6ce080e7          	jalr	1742(ra) # 5f94 <printf>
    exit(1);
    28ce:	4505                	li	a0,1
    28d0:	00003097          	auipc	ra,0x3
    28d4:	35c080e7          	jalr	860(ra) # 5c2c <exit>
  close(fd);
    28d8:	854a                	mv	a0,s2
    28da:	00003097          	auipc	ra,0x3
    28de:	37a080e7          	jalr	890(ra) # 5c54 <close>
  exit(0);
    28e2:	4501                	li	a0,0
    28e4:	00003097          	auipc	ra,0x3
    28e8:	348080e7          	jalr	840(ra) # 5c2c <exit>

00000000000028ec <sbrkbasic>:
{
    28ec:	7139                	add	sp,sp,-64
    28ee:	fc06                	sd	ra,56(sp)
    28f0:	f822                	sd	s0,48(sp)
    28f2:	ec4e                	sd	s3,24(sp)
    28f4:	0080                	add	s0,sp,64
    28f6:	89aa                	mv	s3,a0
  pid = fork();
    28f8:	00003097          	auipc	ra,0x3
    28fc:	32c080e7          	jalr	812(ra) # 5c24 <fork>
  if(pid < 0){
    2900:	02054f63          	bltz	a0,293e <sbrkbasic+0x52>
  if(pid == 0){
    2904:	e52d                	bnez	a0,296e <sbrkbasic+0x82>
    a = sbrk(TOOMUCH);
    2906:	40000537          	lui	a0,0x40000
    290a:	00003097          	auipc	ra,0x3
    290e:	3aa080e7          	jalr	938(ra) # 5cb4 <sbrk>
    if(a == (char*)0xffffffffffffffffL){
    2912:	57fd                	li	a5,-1
    2914:	04f50563          	beq	a0,a5,295e <sbrkbasic+0x72>
    2918:	f426                	sd	s1,40(sp)
    291a:	f04a                	sd	s2,32(sp)
    291c:	e852                	sd	s4,16(sp)
    for(b = a; b < a+TOOMUCH; b += 4096){
    291e:	400007b7          	lui	a5,0x40000
    2922:	97aa                	add	a5,a5,a0
      *b = 99;
    2924:	06300693          	li	a3,99
    for(b = a; b < a+TOOMUCH; b += 4096){
    2928:	6705                	lui	a4,0x1
      *b = 99;
    292a:	00d50023          	sb	a3,0(a0) # 40000000 <base+0x3fff0388>
    for(b = a; b < a+TOOMUCH; b += 4096){
    292e:	953a                	add	a0,a0,a4
    2930:	fef51de3          	bne	a0,a5,292a <sbrkbasic+0x3e>
    exit(1);
    2934:	4505                	li	a0,1
    2936:	00003097          	auipc	ra,0x3
    293a:	2f6080e7          	jalr	758(ra) # 5c2c <exit>
    293e:	f426                	sd	s1,40(sp)
    2940:	f04a                	sd	s2,32(sp)
    2942:	e852                	sd	s4,16(sp)
    printf("fork failed in sbrkbasic\n");
    2944:	00004517          	auipc	a0,0x4
    2948:	5fc50513          	add	a0,a0,1532 # 6f40 <malloc+0xef4>
    294c:	00003097          	auipc	ra,0x3
    2950:	648080e7          	jalr	1608(ra) # 5f94 <printf>
    exit(1);
    2954:	4505                	li	a0,1
    2956:	00003097          	auipc	ra,0x3
    295a:	2d6080e7          	jalr	726(ra) # 5c2c <exit>
    295e:	f426                	sd	s1,40(sp)
    2960:	f04a                	sd	s2,32(sp)
    2962:	e852                	sd	s4,16(sp)
      exit(0);
    2964:	4501                	li	a0,0
    2966:	00003097          	auipc	ra,0x3
    296a:	2c6080e7          	jalr	710(ra) # 5c2c <exit>
  wait(&xstatus);
    296e:	fcc40513          	add	a0,s0,-52
    2972:	00003097          	auipc	ra,0x3
    2976:	2c2080e7          	jalr	706(ra) # 5c34 <wait>
  if(xstatus == 1){
    297a:	fcc42703          	lw	a4,-52(s0)
    297e:	4785                	li	a5,1
    2980:	02f70063          	beq	a4,a5,29a0 <sbrkbasic+0xb4>
    2984:	f426                	sd	s1,40(sp)
    2986:	f04a                	sd	s2,32(sp)
    2988:	e852                	sd	s4,16(sp)
  a = sbrk(0);
    298a:	4501                	li	a0,0
    298c:	00003097          	auipc	ra,0x3
    2990:	328080e7          	jalr	808(ra) # 5cb4 <sbrk>
    2994:	84aa                	mv	s1,a0
  for(i = 0; i < 5000; i++){
    2996:	4901                	li	s2,0
    2998:	6a05                	lui	s4,0x1
    299a:	388a0a13          	add	s4,s4,904 # 1388 <badarg+0x3c>
    299e:	a01d                	j	29c4 <sbrkbasic+0xd8>
    29a0:	f426                	sd	s1,40(sp)
    29a2:	f04a                	sd	s2,32(sp)
    29a4:	e852                	sd	s4,16(sp)
    printf("%s: too much memory allocated!\n", s);
    29a6:	85ce                	mv	a1,s3
    29a8:	00004517          	auipc	a0,0x4
    29ac:	5b850513          	add	a0,a0,1464 # 6f60 <malloc+0xf14>
    29b0:	00003097          	auipc	ra,0x3
    29b4:	5e4080e7          	jalr	1508(ra) # 5f94 <printf>
    exit(1);
    29b8:	4505                	li	a0,1
    29ba:	00003097          	auipc	ra,0x3
    29be:	272080e7          	jalr	626(ra) # 5c2c <exit>
    29c2:	84be                	mv	s1,a5
    b = sbrk(1);
    29c4:	4505                	li	a0,1
    29c6:	00003097          	auipc	ra,0x3
    29ca:	2ee080e7          	jalr	750(ra) # 5cb4 <sbrk>
    if(b != a){
    29ce:	04951c63          	bne	a0,s1,2a26 <sbrkbasic+0x13a>
    *b = 1;
    29d2:	4785                	li	a5,1
    29d4:	00f48023          	sb	a5,0(s1)
    a = b + 1;
    29d8:	00148793          	add	a5,s1,1
  for(i = 0; i < 5000; i++){
    29dc:	2905                	addw	s2,s2,1
    29de:	ff4912e3          	bne	s2,s4,29c2 <sbrkbasic+0xd6>
  pid = fork();
    29e2:	00003097          	auipc	ra,0x3
    29e6:	242080e7          	jalr	578(ra) # 5c24 <fork>
    29ea:	892a                	mv	s2,a0
  if(pid < 0){
    29ec:	04054e63          	bltz	a0,2a48 <sbrkbasic+0x15c>
  c = sbrk(1);
    29f0:	4505                	li	a0,1
    29f2:	00003097          	auipc	ra,0x3
    29f6:	2c2080e7          	jalr	706(ra) # 5cb4 <sbrk>
  c = sbrk(1);
    29fa:	4505                	li	a0,1
    29fc:	00003097          	auipc	ra,0x3
    2a00:	2b8080e7          	jalr	696(ra) # 5cb4 <sbrk>
  if(c != a + 1){
    2a04:	0489                	add	s1,s1,2
    2a06:	04a48f63          	beq	s1,a0,2a64 <sbrkbasic+0x178>
    printf("%s: sbrk test failed post-fork\n", s);
    2a0a:	85ce                	mv	a1,s3
    2a0c:	00004517          	auipc	a0,0x4
    2a10:	5b450513          	add	a0,a0,1460 # 6fc0 <malloc+0xf74>
    2a14:	00003097          	auipc	ra,0x3
    2a18:	580080e7          	jalr	1408(ra) # 5f94 <printf>
    exit(1);
    2a1c:	4505                	li	a0,1
    2a1e:	00003097          	auipc	ra,0x3
    2a22:	20e080e7          	jalr	526(ra) # 5c2c <exit>
      printf("%s: sbrk test failed %d %x %x\n", s, i, a, b);
    2a26:	872a                	mv	a4,a0
    2a28:	86a6                	mv	a3,s1
    2a2a:	864a                	mv	a2,s2
    2a2c:	85ce                	mv	a1,s3
    2a2e:	00004517          	auipc	a0,0x4
    2a32:	55250513          	add	a0,a0,1362 # 6f80 <malloc+0xf34>
    2a36:	00003097          	auipc	ra,0x3
    2a3a:	55e080e7          	jalr	1374(ra) # 5f94 <printf>
      exit(1);
    2a3e:	4505                	li	a0,1
    2a40:	00003097          	auipc	ra,0x3
    2a44:	1ec080e7          	jalr	492(ra) # 5c2c <exit>
    printf("%s: sbrk test fork failed\n", s);
    2a48:	85ce                	mv	a1,s3
    2a4a:	00004517          	auipc	a0,0x4
    2a4e:	55650513          	add	a0,a0,1366 # 6fa0 <malloc+0xf54>
    2a52:	00003097          	auipc	ra,0x3
    2a56:	542080e7          	jalr	1346(ra) # 5f94 <printf>
    exit(1);
    2a5a:	4505                	li	a0,1
    2a5c:	00003097          	auipc	ra,0x3
    2a60:	1d0080e7          	jalr	464(ra) # 5c2c <exit>
  if(pid == 0)
    2a64:	00091763          	bnez	s2,2a72 <sbrkbasic+0x186>
    exit(0);
    2a68:	4501                	li	a0,0
    2a6a:	00003097          	auipc	ra,0x3
    2a6e:	1c2080e7          	jalr	450(ra) # 5c2c <exit>
  wait(&xstatus);
    2a72:	fcc40513          	add	a0,s0,-52
    2a76:	00003097          	auipc	ra,0x3
    2a7a:	1be080e7          	jalr	446(ra) # 5c34 <wait>
  exit(xstatus);
    2a7e:	fcc42503          	lw	a0,-52(s0)
    2a82:	00003097          	auipc	ra,0x3
    2a86:	1aa080e7          	jalr	426(ra) # 5c2c <exit>

0000000000002a8a <sbrkmuch>:
{
    2a8a:	7179                	add	sp,sp,-48
    2a8c:	f406                	sd	ra,40(sp)
    2a8e:	f022                	sd	s0,32(sp)
    2a90:	ec26                	sd	s1,24(sp)
    2a92:	e84a                	sd	s2,16(sp)
    2a94:	e44e                	sd	s3,8(sp)
    2a96:	e052                	sd	s4,0(sp)
    2a98:	1800                	add	s0,sp,48
    2a9a:	89aa                	mv	s3,a0
  oldbrk = sbrk(0);
    2a9c:	4501                	li	a0,0
    2a9e:	00003097          	auipc	ra,0x3
    2aa2:	216080e7          	jalr	534(ra) # 5cb4 <sbrk>
    2aa6:	892a                	mv	s2,a0
  a = sbrk(0);
    2aa8:	4501                	li	a0,0
    2aaa:	00003097          	auipc	ra,0x3
    2aae:	20a080e7          	jalr	522(ra) # 5cb4 <sbrk>
    2ab2:	84aa                	mv	s1,a0
  p = sbrk(amt);
    2ab4:	06400537          	lui	a0,0x6400
    2ab8:	9d05                	subw	a0,a0,s1
    2aba:	00003097          	auipc	ra,0x3
    2abe:	1fa080e7          	jalr	506(ra) # 5cb4 <sbrk>
  if (p != a) {
    2ac2:	0ca49863          	bne	s1,a0,2b92 <sbrkmuch+0x108>
  char *eee = sbrk(0);
    2ac6:	4501                	li	a0,0
    2ac8:	00003097          	auipc	ra,0x3
    2acc:	1ec080e7          	jalr	492(ra) # 5cb4 <sbrk>
    2ad0:	87aa                	mv	a5,a0
  for(char *pp = a; pp < eee; pp += 4096)
    2ad2:	00a4f963          	bgeu	s1,a0,2ae4 <sbrkmuch+0x5a>
    *pp = 1;
    2ad6:	4685                	li	a3,1
  for(char *pp = a; pp < eee; pp += 4096)
    2ad8:	6705                	lui	a4,0x1
    *pp = 1;
    2ada:	00d48023          	sb	a3,0(s1)
  for(char *pp = a; pp < eee; pp += 4096)
    2ade:	94ba                	add	s1,s1,a4
    2ae0:	fef4ede3          	bltu	s1,a5,2ada <sbrkmuch+0x50>
  *lastaddr = 99;
    2ae4:	064007b7          	lui	a5,0x6400
    2ae8:	06300713          	li	a4,99
    2aec:	fee78fa3          	sb	a4,-1(a5) # 63fffff <base+0x63f0387>
  a = sbrk(0);
    2af0:	4501                	li	a0,0
    2af2:	00003097          	auipc	ra,0x3
    2af6:	1c2080e7          	jalr	450(ra) # 5cb4 <sbrk>
    2afa:	84aa                	mv	s1,a0
  c = sbrk(-PGSIZE);
    2afc:	757d                	lui	a0,0xfffff
    2afe:	00003097          	auipc	ra,0x3
    2b02:	1b6080e7          	jalr	438(ra) # 5cb4 <sbrk>
  if(c == (char*)0xffffffffffffffffL){
    2b06:	57fd                	li	a5,-1
    2b08:	0af50363          	beq	a0,a5,2bae <sbrkmuch+0x124>
  c = sbrk(0);
    2b0c:	4501                	li	a0,0
    2b0e:	00003097          	auipc	ra,0x3
    2b12:	1a6080e7          	jalr	422(ra) # 5cb4 <sbrk>
  if(c != a - PGSIZE){
    2b16:	77fd                	lui	a5,0xfffff
    2b18:	97a6                	add	a5,a5,s1
    2b1a:	0af51863          	bne	a0,a5,2bca <sbrkmuch+0x140>
  a = sbrk(0);
    2b1e:	4501                	li	a0,0
    2b20:	00003097          	auipc	ra,0x3
    2b24:	194080e7          	jalr	404(ra) # 5cb4 <sbrk>
    2b28:	84aa                	mv	s1,a0
  c = sbrk(PGSIZE);
    2b2a:	6505                	lui	a0,0x1
    2b2c:	00003097          	auipc	ra,0x3
    2b30:	188080e7          	jalr	392(ra) # 5cb4 <sbrk>
    2b34:	8a2a                	mv	s4,a0
  if(c != a || sbrk(0) != a + PGSIZE){
    2b36:	0aa49a63          	bne	s1,a0,2bea <sbrkmuch+0x160>
    2b3a:	4501                	li	a0,0
    2b3c:	00003097          	auipc	ra,0x3
    2b40:	178080e7          	jalr	376(ra) # 5cb4 <sbrk>
    2b44:	6785                	lui	a5,0x1
    2b46:	97a6                	add	a5,a5,s1
    2b48:	0af51163          	bne	a0,a5,2bea <sbrkmuch+0x160>
  if(*lastaddr == 99){
    2b4c:	064007b7          	lui	a5,0x6400
    2b50:	fff7c703          	lbu	a4,-1(a5) # 63fffff <base+0x63f0387>
    2b54:	06300793          	li	a5,99
    2b58:	0af70963          	beq	a4,a5,2c0a <sbrkmuch+0x180>
  a = sbrk(0);
    2b5c:	4501                	li	a0,0
    2b5e:	00003097          	auipc	ra,0x3
    2b62:	156080e7          	jalr	342(ra) # 5cb4 <sbrk>
    2b66:	84aa                	mv	s1,a0
  c = sbrk(-(sbrk(0) - oldbrk));
    2b68:	4501                	li	a0,0
    2b6a:	00003097          	auipc	ra,0x3
    2b6e:	14a080e7          	jalr	330(ra) # 5cb4 <sbrk>
    2b72:	40a9053b          	subw	a0,s2,a0
    2b76:	00003097          	auipc	ra,0x3
    2b7a:	13e080e7          	jalr	318(ra) # 5cb4 <sbrk>
  if(c != a){
    2b7e:	0aa49463          	bne	s1,a0,2c26 <sbrkmuch+0x19c>
}
    2b82:	70a2                	ld	ra,40(sp)
    2b84:	7402                	ld	s0,32(sp)
    2b86:	64e2                	ld	s1,24(sp)
    2b88:	6942                	ld	s2,16(sp)
    2b8a:	69a2                	ld	s3,8(sp)
    2b8c:	6a02                	ld	s4,0(sp)
    2b8e:	6145                	add	sp,sp,48
    2b90:	8082                	ret
    printf("%s: sbrk test failed to grow big address space; enough phys mem?\n", s);
    2b92:	85ce                	mv	a1,s3
    2b94:	00004517          	auipc	a0,0x4
    2b98:	44c50513          	add	a0,a0,1100 # 6fe0 <malloc+0xf94>
    2b9c:	00003097          	auipc	ra,0x3
    2ba0:	3f8080e7          	jalr	1016(ra) # 5f94 <printf>
    exit(1);
    2ba4:	4505                	li	a0,1
    2ba6:	00003097          	auipc	ra,0x3
    2baa:	086080e7          	jalr	134(ra) # 5c2c <exit>
    printf("%s: sbrk could not deallocate\n", s);
    2bae:	85ce                	mv	a1,s3
    2bb0:	00004517          	auipc	a0,0x4
    2bb4:	47850513          	add	a0,a0,1144 # 7028 <malloc+0xfdc>
    2bb8:	00003097          	auipc	ra,0x3
    2bbc:	3dc080e7          	jalr	988(ra) # 5f94 <printf>
    exit(1);
    2bc0:	4505                	li	a0,1
    2bc2:	00003097          	auipc	ra,0x3
    2bc6:	06a080e7          	jalr	106(ra) # 5c2c <exit>
    printf("%s: sbrk deallocation produced wrong address, a %x c %x\n", s, a, c);
    2bca:	86aa                	mv	a3,a0
    2bcc:	8626                	mv	a2,s1
    2bce:	85ce                	mv	a1,s3
    2bd0:	00004517          	auipc	a0,0x4
    2bd4:	47850513          	add	a0,a0,1144 # 7048 <malloc+0xffc>
    2bd8:	00003097          	auipc	ra,0x3
    2bdc:	3bc080e7          	jalr	956(ra) # 5f94 <printf>
    exit(1);
    2be0:	4505                	li	a0,1
    2be2:	00003097          	auipc	ra,0x3
    2be6:	04a080e7          	jalr	74(ra) # 5c2c <exit>
    printf("%s: sbrk re-allocation failed, a %x c %x\n", s, a, c);
    2bea:	86d2                	mv	a3,s4
    2bec:	8626                	mv	a2,s1
    2bee:	85ce                	mv	a1,s3
    2bf0:	00004517          	auipc	a0,0x4
    2bf4:	49850513          	add	a0,a0,1176 # 7088 <malloc+0x103c>
    2bf8:	00003097          	auipc	ra,0x3
    2bfc:	39c080e7          	jalr	924(ra) # 5f94 <printf>
    exit(1);
    2c00:	4505                	li	a0,1
    2c02:	00003097          	auipc	ra,0x3
    2c06:	02a080e7          	jalr	42(ra) # 5c2c <exit>
    printf("%s: sbrk de-allocation didn't really deallocate\n", s);
    2c0a:	85ce                	mv	a1,s3
    2c0c:	00004517          	auipc	a0,0x4
    2c10:	4ac50513          	add	a0,a0,1196 # 70b8 <malloc+0x106c>
    2c14:	00003097          	auipc	ra,0x3
    2c18:	380080e7          	jalr	896(ra) # 5f94 <printf>
    exit(1);
    2c1c:	4505                	li	a0,1
    2c1e:	00003097          	auipc	ra,0x3
    2c22:	00e080e7          	jalr	14(ra) # 5c2c <exit>
    printf("%s: sbrk downsize failed, a %x c %x\n", s, a, c);
    2c26:	86aa                	mv	a3,a0
    2c28:	8626                	mv	a2,s1
    2c2a:	85ce                	mv	a1,s3
    2c2c:	00004517          	auipc	a0,0x4
    2c30:	4c450513          	add	a0,a0,1220 # 70f0 <malloc+0x10a4>
    2c34:	00003097          	auipc	ra,0x3
    2c38:	360080e7          	jalr	864(ra) # 5f94 <printf>
    exit(1);
    2c3c:	4505                	li	a0,1
    2c3e:	00003097          	auipc	ra,0x3
    2c42:	fee080e7          	jalr	-18(ra) # 5c2c <exit>

0000000000002c46 <sbrkarg>:
{
    2c46:	7179                	add	sp,sp,-48
    2c48:	f406                	sd	ra,40(sp)
    2c4a:	f022                	sd	s0,32(sp)
    2c4c:	ec26                	sd	s1,24(sp)
    2c4e:	e84a                	sd	s2,16(sp)
    2c50:	e44e                	sd	s3,8(sp)
    2c52:	1800                	add	s0,sp,48
    2c54:	89aa                	mv	s3,a0
  a = sbrk(PGSIZE);
    2c56:	6505                	lui	a0,0x1
    2c58:	00003097          	auipc	ra,0x3
    2c5c:	05c080e7          	jalr	92(ra) # 5cb4 <sbrk>
    2c60:	892a                	mv	s2,a0
  fd = open("sbrk", O_CREATE|O_WRONLY);
    2c62:	20100593          	li	a1,513
    2c66:	00004517          	auipc	a0,0x4
    2c6a:	4b250513          	add	a0,a0,1202 # 7118 <malloc+0x10cc>
    2c6e:	00003097          	auipc	ra,0x3
    2c72:	ffe080e7          	jalr	-2(ra) # 5c6c <open>
    2c76:	84aa                	mv	s1,a0
  unlink("sbrk");
    2c78:	00004517          	auipc	a0,0x4
    2c7c:	4a050513          	add	a0,a0,1184 # 7118 <malloc+0x10cc>
    2c80:	00003097          	auipc	ra,0x3
    2c84:	ffc080e7          	jalr	-4(ra) # 5c7c <unlink>
  if(fd < 0)  {
    2c88:	0404c163          	bltz	s1,2cca <sbrkarg+0x84>
  if ((n = write(fd, a, PGSIZE)) < 0) {
    2c8c:	6605                	lui	a2,0x1
    2c8e:	85ca                	mv	a1,s2
    2c90:	8526                	mv	a0,s1
    2c92:	00003097          	auipc	ra,0x3
    2c96:	fba080e7          	jalr	-70(ra) # 5c4c <write>
    2c9a:	04054663          	bltz	a0,2ce6 <sbrkarg+0xa0>
  close(fd);
    2c9e:	8526                	mv	a0,s1
    2ca0:	00003097          	auipc	ra,0x3
    2ca4:	fb4080e7          	jalr	-76(ra) # 5c54 <close>
  a = sbrk(PGSIZE);
    2ca8:	6505                	lui	a0,0x1
    2caa:	00003097          	auipc	ra,0x3
    2cae:	00a080e7          	jalr	10(ra) # 5cb4 <sbrk>
  if(pipe((int *) a) != 0){
    2cb2:	00003097          	auipc	ra,0x3
    2cb6:	f8a080e7          	jalr	-118(ra) # 5c3c <pipe>
    2cba:	e521                	bnez	a0,2d02 <sbrkarg+0xbc>
}
    2cbc:	70a2                	ld	ra,40(sp)
    2cbe:	7402                	ld	s0,32(sp)
    2cc0:	64e2                	ld	s1,24(sp)
    2cc2:	6942                	ld	s2,16(sp)
    2cc4:	69a2                	ld	s3,8(sp)
    2cc6:	6145                	add	sp,sp,48
    2cc8:	8082                	ret
    printf("%s: open sbrk failed\n", s);
    2cca:	85ce                	mv	a1,s3
    2ccc:	00004517          	auipc	a0,0x4
    2cd0:	45450513          	add	a0,a0,1108 # 7120 <malloc+0x10d4>
    2cd4:	00003097          	auipc	ra,0x3
    2cd8:	2c0080e7          	jalr	704(ra) # 5f94 <printf>
    exit(1);
    2cdc:	4505                	li	a0,1
    2cde:	00003097          	auipc	ra,0x3
    2ce2:	f4e080e7          	jalr	-178(ra) # 5c2c <exit>
    printf("%s: write sbrk failed\n", s);
    2ce6:	85ce                	mv	a1,s3
    2ce8:	00004517          	auipc	a0,0x4
    2cec:	45050513          	add	a0,a0,1104 # 7138 <malloc+0x10ec>
    2cf0:	00003097          	auipc	ra,0x3
    2cf4:	2a4080e7          	jalr	676(ra) # 5f94 <printf>
    exit(1);
    2cf8:	4505                	li	a0,1
    2cfa:	00003097          	auipc	ra,0x3
    2cfe:	f32080e7          	jalr	-206(ra) # 5c2c <exit>
    printf("%s: pipe() failed\n", s);
    2d02:	85ce                	mv	a1,s3
    2d04:	00004517          	auipc	a0,0x4
    2d08:	e1450513          	add	a0,a0,-492 # 6b18 <malloc+0xacc>
    2d0c:	00003097          	auipc	ra,0x3
    2d10:	288080e7          	jalr	648(ra) # 5f94 <printf>
    exit(1);
    2d14:	4505                	li	a0,1
    2d16:	00003097          	auipc	ra,0x3
    2d1a:	f16080e7          	jalr	-234(ra) # 5c2c <exit>

0000000000002d1e <argptest>:
{
    2d1e:	1101                	add	sp,sp,-32
    2d20:	ec06                	sd	ra,24(sp)
    2d22:	e822                	sd	s0,16(sp)
    2d24:	e426                	sd	s1,8(sp)
    2d26:	e04a                	sd	s2,0(sp)
    2d28:	1000                	add	s0,sp,32
    2d2a:	892a                	mv	s2,a0
  fd = open("init", O_RDONLY);
    2d2c:	4581                	li	a1,0
    2d2e:	00004517          	auipc	a0,0x4
    2d32:	42250513          	add	a0,a0,1058 # 7150 <malloc+0x1104>
    2d36:	00003097          	auipc	ra,0x3
    2d3a:	f36080e7          	jalr	-202(ra) # 5c6c <open>
  if (fd < 0) {
    2d3e:	02054b63          	bltz	a0,2d74 <argptest+0x56>
    2d42:	84aa                	mv	s1,a0
  read(fd, sbrk(0) - 1, -1);
    2d44:	4501                	li	a0,0
    2d46:	00003097          	auipc	ra,0x3
    2d4a:	f6e080e7          	jalr	-146(ra) # 5cb4 <sbrk>
    2d4e:	567d                	li	a2,-1
    2d50:	fff50593          	add	a1,a0,-1
    2d54:	8526                	mv	a0,s1
    2d56:	00003097          	auipc	ra,0x3
    2d5a:	eee080e7          	jalr	-274(ra) # 5c44 <read>
  close(fd);
    2d5e:	8526                	mv	a0,s1
    2d60:	00003097          	auipc	ra,0x3
    2d64:	ef4080e7          	jalr	-268(ra) # 5c54 <close>
}
    2d68:	60e2                	ld	ra,24(sp)
    2d6a:	6442                	ld	s0,16(sp)
    2d6c:	64a2                	ld	s1,8(sp)
    2d6e:	6902                	ld	s2,0(sp)
    2d70:	6105                	add	sp,sp,32
    2d72:	8082                	ret
    printf("%s: open failed\n", s);
    2d74:	85ca                	mv	a1,s2
    2d76:	00004517          	auipc	a0,0x4
    2d7a:	cb250513          	add	a0,a0,-846 # 6a28 <malloc+0x9dc>
    2d7e:	00003097          	auipc	ra,0x3
    2d82:	216080e7          	jalr	534(ra) # 5f94 <printf>
    exit(1);
    2d86:	4505                	li	a0,1
    2d88:	00003097          	auipc	ra,0x3
    2d8c:	ea4080e7          	jalr	-348(ra) # 5c2c <exit>

0000000000002d90 <sbrkbugs>:
{
    2d90:	1141                	add	sp,sp,-16
    2d92:	e406                	sd	ra,8(sp)
    2d94:	e022                	sd	s0,0(sp)
    2d96:	0800                	add	s0,sp,16
  int pid = fork();
    2d98:	00003097          	auipc	ra,0x3
    2d9c:	e8c080e7          	jalr	-372(ra) # 5c24 <fork>
  if(pid < 0){
    2da0:	02054263          	bltz	a0,2dc4 <sbrkbugs+0x34>
  if(pid == 0){
    2da4:	ed0d                	bnez	a0,2dde <sbrkbugs+0x4e>
    int sz = (uint64) sbrk(0);
    2da6:	00003097          	auipc	ra,0x3
    2daa:	f0e080e7          	jalr	-242(ra) # 5cb4 <sbrk>
    sbrk(-sz);
    2dae:	40a0053b          	negw	a0,a0
    2db2:	00003097          	auipc	ra,0x3
    2db6:	f02080e7          	jalr	-254(ra) # 5cb4 <sbrk>
    exit(0);
    2dba:	4501                	li	a0,0
    2dbc:	00003097          	auipc	ra,0x3
    2dc0:	e70080e7          	jalr	-400(ra) # 5c2c <exit>
    printf("fork failed\n");
    2dc4:	00004517          	auipc	a0,0x4
    2dc8:	05450513          	add	a0,a0,84 # 6e18 <malloc+0xdcc>
    2dcc:	00003097          	auipc	ra,0x3
    2dd0:	1c8080e7          	jalr	456(ra) # 5f94 <printf>
    exit(1);
    2dd4:	4505                	li	a0,1
    2dd6:	00003097          	auipc	ra,0x3
    2dda:	e56080e7          	jalr	-426(ra) # 5c2c <exit>
  wait(0);
    2dde:	4501                	li	a0,0
    2de0:	00003097          	auipc	ra,0x3
    2de4:	e54080e7          	jalr	-428(ra) # 5c34 <wait>
  pid = fork();
    2de8:	00003097          	auipc	ra,0x3
    2dec:	e3c080e7          	jalr	-452(ra) # 5c24 <fork>
  if(pid < 0){
    2df0:	02054563          	bltz	a0,2e1a <sbrkbugs+0x8a>
  if(pid == 0){
    2df4:	e121                	bnez	a0,2e34 <sbrkbugs+0xa4>
    int sz = (uint64) sbrk(0);
    2df6:	00003097          	auipc	ra,0x3
    2dfa:	ebe080e7          	jalr	-322(ra) # 5cb4 <sbrk>
    sbrk(-(sz - 3500));
    2dfe:	6785                	lui	a5,0x1
    2e00:	dac7879b          	addw	a5,a5,-596 # dac <unlinkread+0x6c>
    2e04:	40a7853b          	subw	a0,a5,a0
    2e08:	00003097          	auipc	ra,0x3
    2e0c:	eac080e7          	jalr	-340(ra) # 5cb4 <sbrk>
    exit(0);
    2e10:	4501                	li	a0,0
    2e12:	00003097          	auipc	ra,0x3
    2e16:	e1a080e7          	jalr	-486(ra) # 5c2c <exit>
    printf("fork failed\n");
    2e1a:	00004517          	auipc	a0,0x4
    2e1e:	ffe50513          	add	a0,a0,-2 # 6e18 <malloc+0xdcc>
    2e22:	00003097          	auipc	ra,0x3
    2e26:	172080e7          	jalr	370(ra) # 5f94 <printf>
    exit(1);
    2e2a:	4505                	li	a0,1
    2e2c:	00003097          	auipc	ra,0x3
    2e30:	e00080e7          	jalr	-512(ra) # 5c2c <exit>
  wait(0);
    2e34:	4501                	li	a0,0
    2e36:	00003097          	auipc	ra,0x3
    2e3a:	dfe080e7          	jalr	-514(ra) # 5c34 <wait>
  pid = fork();
    2e3e:	00003097          	auipc	ra,0x3
    2e42:	de6080e7          	jalr	-538(ra) # 5c24 <fork>
  if(pid < 0){
    2e46:	02054a63          	bltz	a0,2e7a <sbrkbugs+0xea>
  if(pid == 0){
    2e4a:	e529                	bnez	a0,2e94 <sbrkbugs+0x104>
    sbrk((10*4096 + 2048) - (uint64)sbrk(0));
    2e4c:	00003097          	auipc	ra,0x3
    2e50:	e68080e7          	jalr	-408(ra) # 5cb4 <sbrk>
    2e54:	67ad                	lui	a5,0xb
    2e56:	8007879b          	addw	a5,a5,-2048 # a800 <uninit+0x298>
    2e5a:	40a7853b          	subw	a0,a5,a0
    2e5e:	00003097          	auipc	ra,0x3
    2e62:	e56080e7          	jalr	-426(ra) # 5cb4 <sbrk>
    sbrk(-10);
    2e66:	5559                	li	a0,-10
    2e68:	00003097          	auipc	ra,0x3
    2e6c:	e4c080e7          	jalr	-436(ra) # 5cb4 <sbrk>
    exit(0);
    2e70:	4501                	li	a0,0
    2e72:	00003097          	auipc	ra,0x3
    2e76:	dba080e7          	jalr	-582(ra) # 5c2c <exit>
    printf("fork failed\n");
    2e7a:	00004517          	auipc	a0,0x4
    2e7e:	f9e50513          	add	a0,a0,-98 # 6e18 <malloc+0xdcc>
    2e82:	00003097          	auipc	ra,0x3
    2e86:	112080e7          	jalr	274(ra) # 5f94 <printf>
    exit(1);
    2e8a:	4505                	li	a0,1
    2e8c:	00003097          	auipc	ra,0x3
    2e90:	da0080e7          	jalr	-608(ra) # 5c2c <exit>
  wait(0);
    2e94:	4501                	li	a0,0
    2e96:	00003097          	auipc	ra,0x3
    2e9a:	d9e080e7          	jalr	-610(ra) # 5c34 <wait>
  exit(0);
    2e9e:	4501                	li	a0,0
    2ea0:	00003097          	auipc	ra,0x3
    2ea4:	d8c080e7          	jalr	-628(ra) # 5c2c <exit>

0000000000002ea8 <sbrklast>:
{
    2ea8:	7179                	add	sp,sp,-48
    2eaa:	f406                	sd	ra,40(sp)
    2eac:	f022                	sd	s0,32(sp)
    2eae:	ec26                	sd	s1,24(sp)
    2eb0:	e84a                	sd	s2,16(sp)
    2eb2:	e44e                	sd	s3,8(sp)
    2eb4:	e052                	sd	s4,0(sp)
    2eb6:	1800                	add	s0,sp,48
  uint64 top = (uint64) sbrk(0);
    2eb8:	4501                	li	a0,0
    2eba:	00003097          	auipc	ra,0x3
    2ebe:	dfa080e7          	jalr	-518(ra) # 5cb4 <sbrk>
  if((top % 4096) != 0)
    2ec2:	03451793          	sll	a5,a0,0x34
    2ec6:	ebd9                	bnez	a5,2f5c <sbrklast+0xb4>
  sbrk(4096);
    2ec8:	6505                	lui	a0,0x1
    2eca:	00003097          	auipc	ra,0x3
    2ece:	dea080e7          	jalr	-534(ra) # 5cb4 <sbrk>
  sbrk(10);
    2ed2:	4529                	li	a0,10
    2ed4:	00003097          	auipc	ra,0x3
    2ed8:	de0080e7          	jalr	-544(ra) # 5cb4 <sbrk>
  sbrk(-20);
    2edc:	5531                	li	a0,-20
    2ede:	00003097          	auipc	ra,0x3
    2ee2:	dd6080e7          	jalr	-554(ra) # 5cb4 <sbrk>
  top = (uint64) sbrk(0);
    2ee6:	4501                	li	a0,0
    2ee8:	00003097          	auipc	ra,0x3
    2eec:	dcc080e7          	jalr	-564(ra) # 5cb4 <sbrk>
    2ef0:	84aa                	mv	s1,a0
  char *p = (char *) (top - 64);
    2ef2:	fc050913          	add	s2,a0,-64 # fc0 <linktest+0xca>
  p[0] = 'x';
    2ef6:	07800a13          	li	s4,120
    2efa:	fd450023          	sb	s4,-64(a0)
  p[1] = '\0';
    2efe:	fc0500a3          	sb	zero,-63(a0)
  int fd = open(p, O_RDWR|O_CREATE);
    2f02:	20200593          	li	a1,514
    2f06:	854a                	mv	a0,s2
    2f08:	00003097          	auipc	ra,0x3
    2f0c:	d64080e7          	jalr	-668(ra) # 5c6c <open>
    2f10:	89aa                	mv	s3,a0
  write(fd, p, 1);
    2f12:	4605                	li	a2,1
    2f14:	85ca                	mv	a1,s2
    2f16:	00003097          	auipc	ra,0x3
    2f1a:	d36080e7          	jalr	-714(ra) # 5c4c <write>
  close(fd);
    2f1e:	854e                	mv	a0,s3
    2f20:	00003097          	auipc	ra,0x3
    2f24:	d34080e7          	jalr	-716(ra) # 5c54 <close>
  fd = open(p, O_RDWR);
    2f28:	4589                	li	a1,2
    2f2a:	854a                	mv	a0,s2
    2f2c:	00003097          	auipc	ra,0x3
    2f30:	d40080e7          	jalr	-704(ra) # 5c6c <open>
  p[0] = '\0';
    2f34:	fc048023          	sb	zero,-64(s1)
  read(fd, p, 1);
    2f38:	4605                	li	a2,1
    2f3a:	85ca                	mv	a1,s2
    2f3c:	00003097          	auipc	ra,0x3
    2f40:	d08080e7          	jalr	-760(ra) # 5c44 <read>
  if(p[0] != 'x')
    2f44:	fc04c783          	lbu	a5,-64(s1)
    2f48:	03479463          	bne	a5,s4,2f70 <sbrklast+0xc8>
}
    2f4c:	70a2                	ld	ra,40(sp)
    2f4e:	7402                	ld	s0,32(sp)
    2f50:	64e2                	ld	s1,24(sp)
    2f52:	6942                	ld	s2,16(sp)
    2f54:	69a2                	ld	s3,8(sp)
    2f56:	6a02                	ld	s4,0(sp)
    2f58:	6145                	add	sp,sp,48
    2f5a:	8082                	ret
    sbrk(4096 - (top % 4096));
    2f5c:	0347d513          	srl	a0,a5,0x34
    2f60:	6785                	lui	a5,0x1
    2f62:	40a7853b          	subw	a0,a5,a0
    2f66:	00003097          	auipc	ra,0x3
    2f6a:	d4e080e7          	jalr	-690(ra) # 5cb4 <sbrk>
    2f6e:	bfa9                	j	2ec8 <sbrklast+0x20>
    exit(1);
    2f70:	4505                	li	a0,1
    2f72:	00003097          	auipc	ra,0x3
    2f76:	cba080e7          	jalr	-838(ra) # 5c2c <exit>

0000000000002f7a <sbrk8000>:
{
    2f7a:	1141                	add	sp,sp,-16
    2f7c:	e406                	sd	ra,8(sp)
    2f7e:	e022                	sd	s0,0(sp)
    2f80:	0800                	add	s0,sp,16
  sbrk(0x80000004);
    2f82:	80000537          	lui	a0,0x80000
    2f86:	0511                	add	a0,a0,4 # ffffffff80000004 <base+0xffffffff7fff038c>
    2f88:	00003097          	auipc	ra,0x3
    2f8c:	d2c080e7          	jalr	-724(ra) # 5cb4 <sbrk>
  volatile char *top = sbrk(0);
    2f90:	4501                	li	a0,0
    2f92:	00003097          	auipc	ra,0x3
    2f96:	d22080e7          	jalr	-734(ra) # 5cb4 <sbrk>
  *(top-1) = *(top-1) + 1;
    2f9a:	fff54783          	lbu	a5,-1(a0)
    2f9e:	2785                	addw	a5,a5,1 # 1001 <linktest+0x10b>
    2fa0:	0ff7f793          	zext.b	a5,a5
    2fa4:	fef50fa3          	sb	a5,-1(a0)
}
    2fa8:	60a2                	ld	ra,8(sp)
    2faa:	6402                	ld	s0,0(sp)
    2fac:	0141                	add	sp,sp,16
    2fae:	8082                	ret

0000000000002fb0 <execout>:
{
    2fb0:	715d                	add	sp,sp,-80
    2fb2:	e486                	sd	ra,72(sp)
    2fb4:	e0a2                	sd	s0,64(sp)
    2fb6:	fc26                	sd	s1,56(sp)
    2fb8:	f84a                	sd	s2,48(sp)
    2fba:	f44e                	sd	s3,40(sp)
    2fbc:	f052                	sd	s4,32(sp)
    2fbe:	0880                	add	s0,sp,80
  for(int avail = 0; avail < 15; avail++){
    2fc0:	4901                	li	s2,0
    2fc2:	49bd                	li	s3,15
    int pid = fork();
    2fc4:	00003097          	auipc	ra,0x3
    2fc8:	c60080e7          	jalr	-928(ra) # 5c24 <fork>
    2fcc:	84aa                	mv	s1,a0
    if(pid < 0){
    2fce:	02054063          	bltz	a0,2fee <execout+0x3e>
    } else if(pid == 0){
    2fd2:	c91d                	beqz	a0,3008 <execout+0x58>
      wait((int*)0);
    2fd4:	4501                	li	a0,0
    2fd6:	00003097          	auipc	ra,0x3
    2fda:	c5e080e7          	jalr	-930(ra) # 5c34 <wait>
  for(int avail = 0; avail < 15; avail++){
    2fde:	2905                	addw	s2,s2,1
    2fe0:	ff3912e3          	bne	s2,s3,2fc4 <execout+0x14>
  exit(0);
    2fe4:	4501                	li	a0,0
    2fe6:	00003097          	auipc	ra,0x3
    2fea:	c46080e7          	jalr	-954(ra) # 5c2c <exit>
      printf("fork failed\n");
    2fee:	00004517          	auipc	a0,0x4
    2ff2:	e2a50513          	add	a0,a0,-470 # 6e18 <malloc+0xdcc>
    2ff6:	00003097          	auipc	ra,0x3
    2ffa:	f9e080e7          	jalr	-98(ra) # 5f94 <printf>
      exit(1);
    2ffe:	4505                	li	a0,1
    3000:	00003097          	auipc	ra,0x3
    3004:	c2c080e7          	jalr	-980(ra) # 5c2c <exit>
        if(a == 0xffffffffffffffffLL)
    3008:	59fd                	li	s3,-1
        *(char*)(a + 4096 - 1) = 1;
    300a:	4a05                	li	s4,1
        uint64 a = (uint64) sbrk(4096);
    300c:	6505                	lui	a0,0x1
    300e:	00003097          	auipc	ra,0x3
    3012:	ca6080e7          	jalr	-858(ra) # 5cb4 <sbrk>
        if(a == 0xffffffffffffffffLL)
    3016:	01350763          	beq	a0,s3,3024 <execout+0x74>
        *(char*)(a + 4096 - 1) = 1;
    301a:	6785                	lui	a5,0x1
    301c:	97aa                	add	a5,a5,a0
    301e:	ff478fa3          	sb	s4,-1(a5) # fff <linktest+0x109>
      while(1){
    3022:	b7ed                	j	300c <execout+0x5c>
      for(int i = 0; i < avail; i++)
    3024:	01205a63          	blez	s2,3038 <execout+0x88>
        sbrk(-4096);
    3028:	757d                	lui	a0,0xfffff
    302a:	00003097          	auipc	ra,0x3
    302e:	c8a080e7          	jalr	-886(ra) # 5cb4 <sbrk>
      for(int i = 0; i < avail; i++)
    3032:	2485                	addw	s1,s1,1
    3034:	ff249ae3          	bne	s1,s2,3028 <execout+0x78>
      close(1);
    3038:	4505                	li	a0,1
    303a:	00003097          	auipc	ra,0x3
    303e:	c1a080e7          	jalr	-998(ra) # 5c54 <close>
      char *args[] = { "echo", "x", 0 };
    3042:	00003517          	auipc	a0,0x3
    3046:	14650513          	add	a0,a0,326 # 6188 <malloc+0x13c>
    304a:	faa43c23          	sd	a0,-72(s0)
    304e:	00003797          	auipc	a5,0x3
    3052:	1aa78793          	add	a5,a5,426 # 61f8 <malloc+0x1ac>
    3056:	fcf43023          	sd	a5,-64(s0)
    305a:	fc043423          	sd	zero,-56(s0)
      exec("echo", args);
    305e:	fb840593          	add	a1,s0,-72
    3062:	00003097          	auipc	ra,0x3
    3066:	c02080e7          	jalr	-1022(ra) # 5c64 <exec>
      exit(0);
    306a:	4501                	li	a0,0
    306c:	00003097          	auipc	ra,0x3
    3070:	bc0080e7          	jalr	-1088(ra) # 5c2c <exit>

0000000000003074 <fourteen>:
{
    3074:	1101                	add	sp,sp,-32
    3076:	ec06                	sd	ra,24(sp)
    3078:	e822                	sd	s0,16(sp)
    307a:	e426                	sd	s1,8(sp)
    307c:	1000                	add	s0,sp,32
    307e:	84aa                	mv	s1,a0
  if(mkdir("12345678901234") != 0){
    3080:	00004517          	auipc	a0,0x4
    3084:	2a850513          	add	a0,a0,680 # 7328 <malloc+0x12dc>
    3088:	00003097          	auipc	ra,0x3
    308c:	c0c080e7          	jalr	-1012(ra) # 5c94 <mkdir>
    3090:	e165                	bnez	a0,3170 <fourteen+0xfc>
  if(mkdir("12345678901234/123456789012345") != 0){
    3092:	00004517          	auipc	a0,0x4
    3096:	0ee50513          	add	a0,a0,238 # 7180 <malloc+0x1134>
    309a:	00003097          	auipc	ra,0x3
    309e:	bfa080e7          	jalr	-1030(ra) # 5c94 <mkdir>
    30a2:	e56d                	bnez	a0,318c <fourteen+0x118>
  fd = open("123456789012345/123456789012345/123456789012345", O_CREATE);
    30a4:	20000593          	li	a1,512
    30a8:	00004517          	auipc	a0,0x4
    30ac:	13050513          	add	a0,a0,304 # 71d8 <malloc+0x118c>
    30b0:	00003097          	auipc	ra,0x3
    30b4:	bbc080e7          	jalr	-1092(ra) # 5c6c <open>
  if(fd < 0){
    30b8:	0e054863          	bltz	a0,31a8 <fourteen+0x134>
  close(fd);
    30bc:	00003097          	auipc	ra,0x3
    30c0:	b98080e7          	jalr	-1128(ra) # 5c54 <close>
  fd = open("12345678901234/12345678901234/12345678901234", 0);
    30c4:	4581                	li	a1,0
    30c6:	00004517          	auipc	a0,0x4
    30ca:	18a50513          	add	a0,a0,394 # 7250 <malloc+0x1204>
    30ce:	00003097          	auipc	ra,0x3
    30d2:	b9e080e7          	jalr	-1122(ra) # 5c6c <open>
  if(fd < 0){
    30d6:	0e054763          	bltz	a0,31c4 <fourteen+0x150>
  close(fd);
    30da:	00003097          	auipc	ra,0x3
    30de:	b7a080e7          	jalr	-1158(ra) # 5c54 <close>
  if(mkdir("12345678901234/12345678901234") == 0){
    30e2:	00004517          	auipc	a0,0x4
    30e6:	1de50513          	add	a0,a0,478 # 72c0 <malloc+0x1274>
    30ea:	00003097          	auipc	ra,0x3
    30ee:	baa080e7          	jalr	-1110(ra) # 5c94 <mkdir>
    30f2:	c57d                	beqz	a0,31e0 <fourteen+0x16c>
  if(mkdir("123456789012345/12345678901234") == 0){
    30f4:	00004517          	auipc	a0,0x4
    30f8:	22450513          	add	a0,a0,548 # 7318 <malloc+0x12cc>
    30fc:	00003097          	auipc	ra,0x3
    3100:	b98080e7          	jalr	-1128(ra) # 5c94 <mkdir>
    3104:	cd65                	beqz	a0,31fc <fourteen+0x188>
  unlink("123456789012345/12345678901234");
    3106:	00004517          	auipc	a0,0x4
    310a:	21250513          	add	a0,a0,530 # 7318 <malloc+0x12cc>
    310e:	00003097          	auipc	ra,0x3
    3112:	b6e080e7          	jalr	-1170(ra) # 5c7c <unlink>
  unlink("12345678901234/12345678901234");
    3116:	00004517          	auipc	a0,0x4
    311a:	1aa50513          	add	a0,a0,426 # 72c0 <malloc+0x1274>
    311e:	00003097          	auipc	ra,0x3
    3122:	b5e080e7          	jalr	-1186(ra) # 5c7c <unlink>
  unlink("12345678901234/12345678901234/12345678901234");
    3126:	00004517          	auipc	a0,0x4
    312a:	12a50513          	add	a0,a0,298 # 7250 <malloc+0x1204>
    312e:	00003097          	auipc	ra,0x3
    3132:	b4e080e7          	jalr	-1202(ra) # 5c7c <unlink>
  unlink("123456789012345/123456789012345/123456789012345");
    3136:	00004517          	auipc	a0,0x4
    313a:	0a250513          	add	a0,a0,162 # 71d8 <malloc+0x118c>
    313e:	00003097          	auipc	ra,0x3
    3142:	b3e080e7          	jalr	-1218(ra) # 5c7c <unlink>
  unlink("12345678901234/123456789012345");
    3146:	00004517          	auipc	a0,0x4
    314a:	03a50513          	add	a0,a0,58 # 7180 <malloc+0x1134>
    314e:	00003097          	auipc	ra,0x3
    3152:	b2e080e7          	jalr	-1234(ra) # 5c7c <unlink>
  unlink("12345678901234");
    3156:	00004517          	auipc	a0,0x4
    315a:	1d250513          	add	a0,a0,466 # 7328 <malloc+0x12dc>
    315e:	00003097          	auipc	ra,0x3
    3162:	b1e080e7          	jalr	-1250(ra) # 5c7c <unlink>
}
    3166:	60e2                	ld	ra,24(sp)
    3168:	6442                	ld	s0,16(sp)
    316a:	64a2                	ld	s1,8(sp)
    316c:	6105                	add	sp,sp,32
    316e:	8082                	ret
    printf("%s: mkdir 12345678901234 failed\n", s);
    3170:	85a6                	mv	a1,s1
    3172:	00004517          	auipc	a0,0x4
    3176:	fe650513          	add	a0,a0,-26 # 7158 <malloc+0x110c>
    317a:	00003097          	auipc	ra,0x3
    317e:	e1a080e7          	jalr	-486(ra) # 5f94 <printf>
    exit(1);
    3182:	4505                	li	a0,1
    3184:	00003097          	auipc	ra,0x3
    3188:	aa8080e7          	jalr	-1368(ra) # 5c2c <exit>
    printf("%s: mkdir 12345678901234/123456789012345 failed\n", s);
    318c:	85a6                	mv	a1,s1
    318e:	00004517          	auipc	a0,0x4
    3192:	01250513          	add	a0,a0,18 # 71a0 <malloc+0x1154>
    3196:	00003097          	auipc	ra,0x3
    319a:	dfe080e7          	jalr	-514(ra) # 5f94 <printf>
    exit(1);
    319e:	4505                	li	a0,1
    31a0:	00003097          	auipc	ra,0x3
    31a4:	a8c080e7          	jalr	-1396(ra) # 5c2c <exit>
    printf("%s: create 123456789012345/123456789012345/123456789012345 failed\n", s);
    31a8:	85a6                	mv	a1,s1
    31aa:	00004517          	auipc	a0,0x4
    31ae:	05e50513          	add	a0,a0,94 # 7208 <malloc+0x11bc>
    31b2:	00003097          	auipc	ra,0x3
    31b6:	de2080e7          	jalr	-542(ra) # 5f94 <printf>
    exit(1);
    31ba:	4505                	li	a0,1
    31bc:	00003097          	auipc	ra,0x3
    31c0:	a70080e7          	jalr	-1424(ra) # 5c2c <exit>
    printf("%s: open 12345678901234/12345678901234/12345678901234 failed\n", s);
    31c4:	85a6                	mv	a1,s1
    31c6:	00004517          	auipc	a0,0x4
    31ca:	0ba50513          	add	a0,a0,186 # 7280 <malloc+0x1234>
    31ce:	00003097          	auipc	ra,0x3
    31d2:	dc6080e7          	jalr	-570(ra) # 5f94 <printf>
    exit(1);
    31d6:	4505                	li	a0,1
    31d8:	00003097          	auipc	ra,0x3
    31dc:	a54080e7          	jalr	-1452(ra) # 5c2c <exit>
    printf("%s: mkdir 12345678901234/12345678901234 succeeded!\n", s);
    31e0:	85a6                	mv	a1,s1
    31e2:	00004517          	auipc	a0,0x4
    31e6:	0fe50513          	add	a0,a0,254 # 72e0 <malloc+0x1294>
    31ea:	00003097          	auipc	ra,0x3
    31ee:	daa080e7          	jalr	-598(ra) # 5f94 <printf>
    exit(1);
    31f2:	4505                	li	a0,1
    31f4:	00003097          	auipc	ra,0x3
    31f8:	a38080e7          	jalr	-1480(ra) # 5c2c <exit>
    printf("%s: mkdir 12345678901234/123456789012345 succeeded!\n", s);
    31fc:	85a6                	mv	a1,s1
    31fe:	00004517          	auipc	a0,0x4
    3202:	13a50513          	add	a0,a0,314 # 7338 <malloc+0x12ec>
    3206:	00003097          	auipc	ra,0x3
    320a:	d8e080e7          	jalr	-626(ra) # 5f94 <printf>
    exit(1);
    320e:	4505                	li	a0,1
    3210:	00003097          	auipc	ra,0x3
    3214:	a1c080e7          	jalr	-1508(ra) # 5c2c <exit>

0000000000003218 <diskfull>:
{
    3218:	b8010113          	add	sp,sp,-1152
    321c:	46113c23          	sd	ra,1144(sp)
    3220:	46813823          	sd	s0,1136(sp)
    3224:	46913423          	sd	s1,1128(sp)
    3228:	47213023          	sd	s2,1120(sp)
    322c:	45313c23          	sd	s3,1112(sp)
    3230:	45413823          	sd	s4,1104(sp)
    3234:	45513423          	sd	s5,1096(sp)
    3238:	45613023          	sd	s6,1088(sp)
    323c:	43713c23          	sd	s7,1080(sp)
    3240:	43813823          	sd	s8,1072(sp)
    3244:	43913423          	sd	s9,1064(sp)
    3248:	48010413          	add	s0,sp,1152
    324c:	8caa                	mv	s9,a0
  unlink("diskfulldir");
    324e:	00004517          	auipc	a0,0x4
    3252:	12250513          	add	a0,a0,290 # 7370 <malloc+0x1324>
    3256:	00003097          	auipc	ra,0x3
    325a:	a26080e7          	jalr	-1498(ra) # 5c7c <unlink>
    325e:	03000993          	li	s3,48
    name[0] = 'b';
    3262:	06200b13          	li	s6,98
    name[1] = 'i';
    3266:	06900a93          	li	s5,105
    name[2] = 'g';
    326a:	06700a13          	li	s4,103
    326e:	10c00b93          	li	s7,268
  for(fi = 0; done == 0 && '0' + fi < 0177; fi++){
    3272:	07f00c13          	li	s8,127
    3276:	a269                	j	3400 <diskfull+0x1e8>
      printf("%s: could not create file %s\n", s, name);
    3278:	b8040613          	add	a2,s0,-1152
    327c:	85e6                	mv	a1,s9
    327e:	00004517          	auipc	a0,0x4
    3282:	10250513          	add	a0,a0,258 # 7380 <malloc+0x1334>
    3286:	00003097          	auipc	ra,0x3
    328a:	d0e080e7          	jalr	-754(ra) # 5f94 <printf>
      break;
    328e:	a819                	j	32a4 <diskfull+0x8c>
        close(fd);
    3290:	854a                	mv	a0,s2
    3292:	00003097          	auipc	ra,0x3
    3296:	9c2080e7          	jalr	-1598(ra) # 5c54 <close>
    close(fd);
    329a:	854a                	mv	a0,s2
    329c:	00003097          	auipc	ra,0x3
    32a0:	9b8080e7          	jalr	-1608(ra) # 5c54 <close>
  for(int i = 0; i < nzz; i++){
    32a4:	4481                	li	s1,0
    name[0] = 'z';
    32a6:	07a00913          	li	s2,122
  for(int i = 0; i < nzz; i++){
    32aa:	08000993          	li	s3,128
    name[0] = 'z';
    32ae:	bb240023          	sb	s2,-1120(s0)
    name[1] = 'z';
    32b2:	bb2400a3          	sb	s2,-1119(s0)
    name[2] = '0' + (i / 32);
    32b6:	41f4d71b          	sraw	a4,s1,0x1f
    32ba:	01b7571b          	srlw	a4,a4,0x1b
    32be:	009707bb          	addw	a5,a4,s1
    32c2:	4057d69b          	sraw	a3,a5,0x5
    32c6:	0306869b          	addw	a3,a3,48
    32ca:	bad40123          	sb	a3,-1118(s0)
    name[3] = '0' + (i % 32);
    32ce:	8bfd                	and	a5,a5,31
    32d0:	9f99                	subw	a5,a5,a4
    32d2:	0307879b          	addw	a5,a5,48
    32d6:	baf401a3          	sb	a5,-1117(s0)
    name[4] = '\0';
    32da:	ba040223          	sb	zero,-1116(s0)
    unlink(name);
    32de:	ba040513          	add	a0,s0,-1120
    32e2:	00003097          	auipc	ra,0x3
    32e6:	99a080e7          	jalr	-1638(ra) # 5c7c <unlink>
    int fd = open(name, O_CREATE|O_RDWR|O_TRUNC);
    32ea:	60200593          	li	a1,1538
    32ee:	ba040513          	add	a0,s0,-1120
    32f2:	00003097          	auipc	ra,0x3
    32f6:	97a080e7          	jalr	-1670(ra) # 5c6c <open>
    if(fd < 0)
    32fa:	00054963          	bltz	a0,330c <diskfull+0xf4>
    close(fd);
    32fe:	00003097          	auipc	ra,0x3
    3302:	956080e7          	jalr	-1706(ra) # 5c54 <close>
  for(int i = 0; i < nzz; i++){
    3306:	2485                	addw	s1,s1,1
    3308:	fb3493e3          	bne	s1,s3,32ae <diskfull+0x96>
  if(mkdir("diskfulldir") == 0)
    330c:	00004517          	auipc	a0,0x4
    3310:	06450513          	add	a0,a0,100 # 7370 <malloc+0x1324>
    3314:	00003097          	auipc	ra,0x3
    3318:	980080e7          	jalr	-1664(ra) # 5c94 <mkdir>
    331c:	12050e63          	beqz	a0,3458 <diskfull+0x240>
  unlink("diskfulldir");
    3320:	00004517          	auipc	a0,0x4
    3324:	05050513          	add	a0,a0,80 # 7370 <malloc+0x1324>
    3328:	00003097          	auipc	ra,0x3
    332c:	954080e7          	jalr	-1708(ra) # 5c7c <unlink>
  for(int i = 0; i < nzz; i++){
    3330:	4481                	li	s1,0
    name[0] = 'z';
    3332:	07a00913          	li	s2,122
  for(int i = 0; i < nzz; i++){
    3336:	08000993          	li	s3,128
    name[0] = 'z';
    333a:	bb240023          	sb	s2,-1120(s0)
    name[1] = 'z';
    333e:	bb2400a3          	sb	s2,-1119(s0)
    name[2] = '0' + (i / 32);
    3342:	41f4d71b          	sraw	a4,s1,0x1f
    3346:	01b7571b          	srlw	a4,a4,0x1b
    334a:	009707bb          	addw	a5,a4,s1
    334e:	4057d69b          	sraw	a3,a5,0x5
    3352:	0306869b          	addw	a3,a3,48
    3356:	bad40123          	sb	a3,-1118(s0)
    name[3] = '0' + (i % 32);
    335a:	8bfd                	and	a5,a5,31
    335c:	9f99                	subw	a5,a5,a4
    335e:	0307879b          	addw	a5,a5,48
    3362:	baf401a3          	sb	a5,-1117(s0)
    name[4] = '\0';
    3366:	ba040223          	sb	zero,-1116(s0)
    unlink(name);
    336a:	ba040513          	add	a0,s0,-1120
    336e:	00003097          	auipc	ra,0x3
    3372:	90e080e7          	jalr	-1778(ra) # 5c7c <unlink>
  for(int i = 0; i < nzz; i++){
    3376:	2485                	addw	s1,s1,1
    3378:	fd3491e3          	bne	s1,s3,333a <diskfull+0x122>
    337c:	03000493          	li	s1,48
    name[0] = 'b';
    3380:	06200a93          	li	s5,98
    name[1] = 'i';
    3384:	06900a13          	li	s4,105
    name[2] = 'g';
    3388:	06700993          	li	s3,103
  for(int i = 0; '0' + i < 0177; i++){
    338c:	07f00913          	li	s2,127
    name[0] = 'b';
    3390:	bb540023          	sb	s5,-1120(s0)
    name[1] = 'i';
    3394:	bb4400a3          	sb	s4,-1119(s0)
    name[2] = 'g';
    3398:	bb340123          	sb	s3,-1118(s0)
    name[3] = '0' + i;
    339c:	ba9401a3          	sb	s1,-1117(s0)
    name[4] = '\0';
    33a0:	ba040223          	sb	zero,-1116(s0)
    unlink(name);
    33a4:	ba040513          	add	a0,s0,-1120
    33a8:	00003097          	auipc	ra,0x3
    33ac:	8d4080e7          	jalr	-1836(ra) # 5c7c <unlink>
  for(int i = 0; '0' + i < 0177; i++){
    33b0:	2485                	addw	s1,s1,1
    33b2:	0ff4f493          	zext.b	s1,s1
    33b6:	fd249de3          	bne	s1,s2,3390 <diskfull+0x178>
}
    33ba:	47813083          	ld	ra,1144(sp)
    33be:	47013403          	ld	s0,1136(sp)
    33c2:	46813483          	ld	s1,1128(sp)
    33c6:	46013903          	ld	s2,1120(sp)
    33ca:	45813983          	ld	s3,1112(sp)
    33ce:	45013a03          	ld	s4,1104(sp)
    33d2:	44813a83          	ld	s5,1096(sp)
    33d6:	44013b03          	ld	s6,1088(sp)
    33da:	43813b83          	ld	s7,1080(sp)
    33de:	43013c03          	ld	s8,1072(sp)
    33e2:	42813c83          	ld	s9,1064(sp)
    33e6:	48010113          	add	sp,sp,1152
    33ea:	8082                	ret
    close(fd);
    33ec:	854a                	mv	a0,s2
    33ee:	00003097          	auipc	ra,0x3
    33f2:	866080e7          	jalr	-1946(ra) # 5c54 <close>
  for(fi = 0; done == 0 && '0' + fi < 0177; fi++){
    33f6:	2985                	addw	s3,s3,1
    33f8:	0ff9f993          	zext.b	s3,s3
    33fc:	eb8984e3          	beq	s3,s8,32a4 <diskfull+0x8c>
    name[0] = 'b';
    3400:	b9640023          	sb	s6,-1152(s0)
    name[1] = 'i';
    3404:	b95400a3          	sb	s5,-1151(s0)
    name[2] = 'g';
    3408:	b9440123          	sb	s4,-1150(s0)
    name[3] = '0' + fi;
    340c:	b93401a3          	sb	s3,-1149(s0)
    name[4] = '\0';
    3410:	b8040223          	sb	zero,-1148(s0)
    unlink(name);
    3414:	b8040513          	add	a0,s0,-1152
    3418:	00003097          	auipc	ra,0x3
    341c:	864080e7          	jalr	-1948(ra) # 5c7c <unlink>
    int fd = open(name, O_CREATE|O_RDWR|O_TRUNC);
    3420:	60200593          	li	a1,1538
    3424:	b8040513          	add	a0,s0,-1152
    3428:	00003097          	auipc	ra,0x3
    342c:	844080e7          	jalr	-1980(ra) # 5c6c <open>
    3430:	892a                	mv	s2,a0
    if(fd < 0){
    3432:	e40543e3          	bltz	a0,3278 <diskfull+0x60>
    3436:	84de                	mv	s1,s7
      if(write(fd, buf, BSIZE) != BSIZE){
    3438:	40000613          	li	a2,1024
    343c:	ba040593          	add	a1,s0,-1120
    3440:	854a                	mv	a0,s2
    3442:	00003097          	auipc	ra,0x3
    3446:	80a080e7          	jalr	-2038(ra) # 5c4c <write>
    344a:	40000793          	li	a5,1024
    344e:	e4f511e3          	bne	a0,a5,3290 <diskfull+0x78>
    for(int i = 0; i < MAXFILE; i++){
    3452:	34fd                	addw	s1,s1,-1
    3454:	f0f5                	bnez	s1,3438 <diskfull+0x220>
    3456:	bf59                	j	33ec <diskfull+0x1d4>
    printf("%s: mkdir(diskfulldir) unexpectedly succeeded!\n");
    3458:	00004517          	auipc	a0,0x4
    345c:	f4850513          	add	a0,a0,-184 # 73a0 <malloc+0x1354>
    3460:	00003097          	auipc	ra,0x3
    3464:	b34080e7          	jalr	-1228(ra) # 5f94 <printf>
    3468:	bd65                	j	3320 <diskfull+0x108>

000000000000346a <iputtest>:
{
    346a:	1101                	add	sp,sp,-32
    346c:	ec06                	sd	ra,24(sp)
    346e:	e822                	sd	s0,16(sp)
    3470:	e426                	sd	s1,8(sp)
    3472:	1000                	add	s0,sp,32
    3474:	84aa                	mv	s1,a0
  if(mkdir("iputdir") < 0){
    3476:	00004517          	auipc	a0,0x4
    347a:	f5a50513          	add	a0,a0,-166 # 73d0 <malloc+0x1384>
    347e:	00003097          	auipc	ra,0x3
    3482:	816080e7          	jalr	-2026(ra) # 5c94 <mkdir>
    3486:	04054563          	bltz	a0,34d0 <iputtest+0x66>
  if(chdir("iputdir") < 0){
    348a:	00004517          	auipc	a0,0x4
    348e:	f4650513          	add	a0,a0,-186 # 73d0 <malloc+0x1384>
    3492:	00003097          	auipc	ra,0x3
    3496:	80a080e7          	jalr	-2038(ra) # 5c9c <chdir>
    349a:	04054963          	bltz	a0,34ec <iputtest+0x82>
  if(unlink("../iputdir") < 0){
    349e:	00004517          	auipc	a0,0x4
    34a2:	f7250513          	add	a0,a0,-142 # 7410 <malloc+0x13c4>
    34a6:	00002097          	auipc	ra,0x2
    34aa:	7d6080e7          	jalr	2006(ra) # 5c7c <unlink>
    34ae:	04054d63          	bltz	a0,3508 <iputtest+0x9e>
  if(chdir("/") < 0){
    34b2:	00004517          	auipc	a0,0x4
    34b6:	f8e50513          	add	a0,a0,-114 # 7440 <malloc+0x13f4>
    34ba:	00002097          	auipc	ra,0x2
    34be:	7e2080e7          	jalr	2018(ra) # 5c9c <chdir>
    34c2:	06054163          	bltz	a0,3524 <iputtest+0xba>
}
    34c6:	60e2                	ld	ra,24(sp)
    34c8:	6442                	ld	s0,16(sp)
    34ca:	64a2                	ld	s1,8(sp)
    34cc:	6105                	add	sp,sp,32
    34ce:	8082                	ret
    printf("%s: mkdir failed\n", s);
    34d0:	85a6                	mv	a1,s1
    34d2:	00004517          	auipc	a0,0x4
    34d6:	f0650513          	add	a0,a0,-250 # 73d8 <malloc+0x138c>
    34da:	00003097          	auipc	ra,0x3
    34de:	aba080e7          	jalr	-1350(ra) # 5f94 <printf>
    exit(1);
    34e2:	4505                	li	a0,1
    34e4:	00002097          	auipc	ra,0x2
    34e8:	748080e7          	jalr	1864(ra) # 5c2c <exit>
    printf("%s: chdir iputdir failed\n", s);
    34ec:	85a6                	mv	a1,s1
    34ee:	00004517          	auipc	a0,0x4
    34f2:	f0250513          	add	a0,a0,-254 # 73f0 <malloc+0x13a4>
    34f6:	00003097          	auipc	ra,0x3
    34fa:	a9e080e7          	jalr	-1378(ra) # 5f94 <printf>
    exit(1);
    34fe:	4505                	li	a0,1
    3500:	00002097          	auipc	ra,0x2
    3504:	72c080e7          	jalr	1836(ra) # 5c2c <exit>
    printf("%s: unlink ../iputdir failed\n", s);
    3508:	85a6                	mv	a1,s1
    350a:	00004517          	auipc	a0,0x4
    350e:	f1650513          	add	a0,a0,-234 # 7420 <malloc+0x13d4>
    3512:	00003097          	auipc	ra,0x3
    3516:	a82080e7          	jalr	-1406(ra) # 5f94 <printf>
    exit(1);
    351a:	4505                	li	a0,1
    351c:	00002097          	auipc	ra,0x2
    3520:	710080e7          	jalr	1808(ra) # 5c2c <exit>
    printf("%s: chdir / failed\n", s);
    3524:	85a6                	mv	a1,s1
    3526:	00004517          	auipc	a0,0x4
    352a:	f2250513          	add	a0,a0,-222 # 7448 <malloc+0x13fc>
    352e:	00003097          	auipc	ra,0x3
    3532:	a66080e7          	jalr	-1434(ra) # 5f94 <printf>
    exit(1);
    3536:	4505                	li	a0,1
    3538:	00002097          	auipc	ra,0x2
    353c:	6f4080e7          	jalr	1780(ra) # 5c2c <exit>

0000000000003540 <exitiputtest>:
{
    3540:	7179                	add	sp,sp,-48
    3542:	f406                	sd	ra,40(sp)
    3544:	f022                	sd	s0,32(sp)
    3546:	ec26                	sd	s1,24(sp)
    3548:	1800                	add	s0,sp,48
    354a:	84aa                	mv	s1,a0
  pid = fork();
    354c:	00002097          	auipc	ra,0x2
    3550:	6d8080e7          	jalr	1752(ra) # 5c24 <fork>
  if(pid < 0){
    3554:	04054663          	bltz	a0,35a0 <exitiputtest+0x60>
  if(pid == 0){
    3558:	ed45                	bnez	a0,3610 <exitiputtest+0xd0>
    if(mkdir("iputdir") < 0){
    355a:	00004517          	auipc	a0,0x4
    355e:	e7650513          	add	a0,a0,-394 # 73d0 <malloc+0x1384>
    3562:	00002097          	auipc	ra,0x2
    3566:	732080e7          	jalr	1842(ra) # 5c94 <mkdir>
    356a:	04054963          	bltz	a0,35bc <exitiputtest+0x7c>
    if(chdir("iputdir") < 0){
    356e:	00004517          	auipc	a0,0x4
    3572:	e6250513          	add	a0,a0,-414 # 73d0 <malloc+0x1384>
    3576:	00002097          	auipc	ra,0x2
    357a:	726080e7          	jalr	1830(ra) # 5c9c <chdir>
    357e:	04054d63          	bltz	a0,35d8 <exitiputtest+0x98>
    if(unlink("../iputdir") < 0){
    3582:	00004517          	auipc	a0,0x4
    3586:	e8e50513          	add	a0,a0,-370 # 7410 <malloc+0x13c4>
    358a:	00002097          	auipc	ra,0x2
    358e:	6f2080e7          	jalr	1778(ra) # 5c7c <unlink>
    3592:	06054163          	bltz	a0,35f4 <exitiputtest+0xb4>
    exit(0);
    3596:	4501                	li	a0,0
    3598:	00002097          	auipc	ra,0x2
    359c:	694080e7          	jalr	1684(ra) # 5c2c <exit>
    printf("%s: fork failed\n", s);
    35a0:	85a6                	mv	a1,s1
    35a2:	00003517          	auipc	a0,0x3
    35a6:	46e50513          	add	a0,a0,1134 # 6a10 <malloc+0x9c4>
    35aa:	00003097          	auipc	ra,0x3
    35ae:	9ea080e7          	jalr	-1558(ra) # 5f94 <printf>
    exit(1);
    35b2:	4505                	li	a0,1
    35b4:	00002097          	auipc	ra,0x2
    35b8:	678080e7          	jalr	1656(ra) # 5c2c <exit>
      printf("%s: mkdir failed\n", s);
    35bc:	85a6                	mv	a1,s1
    35be:	00004517          	auipc	a0,0x4
    35c2:	e1a50513          	add	a0,a0,-486 # 73d8 <malloc+0x138c>
    35c6:	00003097          	auipc	ra,0x3
    35ca:	9ce080e7          	jalr	-1586(ra) # 5f94 <printf>
      exit(1);
    35ce:	4505                	li	a0,1
    35d0:	00002097          	auipc	ra,0x2
    35d4:	65c080e7          	jalr	1628(ra) # 5c2c <exit>
      printf("%s: child chdir failed\n", s);
    35d8:	85a6                	mv	a1,s1
    35da:	00004517          	auipc	a0,0x4
    35de:	e8650513          	add	a0,a0,-378 # 7460 <malloc+0x1414>
    35e2:	00003097          	auipc	ra,0x3
    35e6:	9b2080e7          	jalr	-1614(ra) # 5f94 <printf>
      exit(1);
    35ea:	4505                	li	a0,1
    35ec:	00002097          	auipc	ra,0x2
    35f0:	640080e7          	jalr	1600(ra) # 5c2c <exit>
      printf("%s: unlink ../iputdir failed\n", s);
    35f4:	85a6                	mv	a1,s1
    35f6:	00004517          	auipc	a0,0x4
    35fa:	e2a50513          	add	a0,a0,-470 # 7420 <malloc+0x13d4>
    35fe:	00003097          	auipc	ra,0x3
    3602:	996080e7          	jalr	-1642(ra) # 5f94 <printf>
      exit(1);
    3606:	4505                	li	a0,1
    3608:	00002097          	auipc	ra,0x2
    360c:	624080e7          	jalr	1572(ra) # 5c2c <exit>
  wait(&xstatus);
    3610:	fdc40513          	add	a0,s0,-36
    3614:	00002097          	auipc	ra,0x2
    3618:	620080e7          	jalr	1568(ra) # 5c34 <wait>
  exit(xstatus);
    361c:	fdc42503          	lw	a0,-36(s0)
    3620:	00002097          	auipc	ra,0x2
    3624:	60c080e7          	jalr	1548(ra) # 5c2c <exit>

0000000000003628 <dirtest>:
{
    3628:	1101                	add	sp,sp,-32
    362a:	ec06                	sd	ra,24(sp)
    362c:	e822                	sd	s0,16(sp)
    362e:	e426                	sd	s1,8(sp)
    3630:	1000                	add	s0,sp,32
    3632:	84aa                	mv	s1,a0
  if(mkdir("dir0") < 0){
    3634:	00004517          	auipc	a0,0x4
    3638:	e4450513          	add	a0,a0,-444 # 7478 <malloc+0x142c>
    363c:	00002097          	auipc	ra,0x2
    3640:	658080e7          	jalr	1624(ra) # 5c94 <mkdir>
    3644:	04054563          	bltz	a0,368e <dirtest+0x66>
  if(chdir("dir0") < 0){
    3648:	00004517          	auipc	a0,0x4
    364c:	e3050513          	add	a0,a0,-464 # 7478 <malloc+0x142c>
    3650:	00002097          	auipc	ra,0x2
    3654:	64c080e7          	jalr	1612(ra) # 5c9c <chdir>
    3658:	04054963          	bltz	a0,36aa <dirtest+0x82>
  if(chdir("..") < 0){
    365c:	00004517          	auipc	a0,0x4
    3660:	e3c50513          	add	a0,a0,-452 # 7498 <malloc+0x144c>
    3664:	00002097          	auipc	ra,0x2
    3668:	638080e7          	jalr	1592(ra) # 5c9c <chdir>
    366c:	04054d63          	bltz	a0,36c6 <dirtest+0x9e>
  if(unlink("dir0") < 0){
    3670:	00004517          	auipc	a0,0x4
    3674:	e0850513          	add	a0,a0,-504 # 7478 <malloc+0x142c>
    3678:	00002097          	auipc	ra,0x2
    367c:	604080e7          	jalr	1540(ra) # 5c7c <unlink>
    3680:	06054163          	bltz	a0,36e2 <dirtest+0xba>
}
    3684:	60e2                	ld	ra,24(sp)
    3686:	6442                	ld	s0,16(sp)
    3688:	64a2                	ld	s1,8(sp)
    368a:	6105                	add	sp,sp,32
    368c:	8082                	ret
    printf("%s: mkdir failed\n", s);
    368e:	85a6                	mv	a1,s1
    3690:	00004517          	auipc	a0,0x4
    3694:	d4850513          	add	a0,a0,-696 # 73d8 <malloc+0x138c>
    3698:	00003097          	auipc	ra,0x3
    369c:	8fc080e7          	jalr	-1796(ra) # 5f94 <printf>
    exit(1);
    36a0:	4505                	li	a0,1
    36a2:	00002097          	auipc	ra,0x2
    36a6:	58a080e7          	jalr	1418(ra) # 5c2c <exit>
    printf("%s: chdir dir0 failed\n", s);
    36aa:	85a6                	mv	a1,s1
    36ac:	00004517          	auipc	a0,0x4
    36b0:	dd450513          	add	a0,a0,-556 # 7480 <malloc+0x1434>
    36b4:	00003097          	auipc	ra,0x3
    36b8:	8e0080e7          	jalr	-1824(ra) # 5f94 <printf>
    exit(1);
    36bc:	4505                	li	a0,1
    36be:	00002097          	auipc	ra,0x2
    36c2:	56e080e7          	jalr	1390(ra) # 5c2c <exit>
    printf("%s: chdir .. failed\n", s);
    36c6:	85a6                	mv	a1,s1
    36c8:	00004517          	auipc	a0,0x4
    36cc:	dd850513          	add	a0,a0,-552 # 74a0 <malloc+0x1454>
    36d0:	00003097          	auipc	ra,0x3
    36d4:	8c4080e7          	jalr	-1852(ra) # 5f94 <printf>
    exit(1);
    36d8:	4505                	li	a0,1
    36da:	00002097          	auipc	ra,0x2
    36de:	552080e7          	jalr	1362(ra) # 5c2c <exit>
    printf("%s: unlink dir0 failed\n", s);
    36e2:	85a6                	mv	a1,s1
    36e4:	00004517          	auipc	a0,0x4
    36e8:	dd450513          	add	a0,a0,-556 # 74b8 <malloc+0x146c>
    36ec:	00003097          	auipc	ra,0x3
    36f0:	8a8080e7          	jalr	-1880(ra) # 5f94 <printf>
    exit(1);
    36f4:	4505                	li	a0,1
    36f6:	00002097          	auipc	ra,0x2
    36fa:	536080e7          	jalr	1334(ra) # 5c2c <exit>

00000000000036fe <subdir>:
{
    36fe:	1101                	add	sp,sp,-32
    3700:	ec06                	sd	ra,24(sp)
    3702:	e822                	sd	s0,16(sp)
    3704:	e426                	sd	s1,8(sp)
    3706:	e04a                	sd	s2,0(sp)
    3708:	1000                	add	s0,sp,32
    370a:	892a                	mv	s2,a0
  unlink("ff");
    370c:	00004517          	auipc	a0,0x4
    3710:	ef450513          	add	a0,a0,-268 # 7600 <malloc+0x15b4>
    3714:	00002097          	auipc	ra,0x2
    3718:	568080e7          	jalr	1384(ra) # 5c7c <unlink>
  if(mkdir("dd") != 0){
    371c:	00004517          	auipc	a0,0x4
    3720:	db450513          	add	a0,a0,-588 # 74d0 <malloc+0x1484>
    3724:	00002097          	auipc	ra,0x2
    3728:	570080e7          	jalr	1392(ra) # 5c94 <mkdir>
    372c:	38051663          	bnez	a0,3ab8 <subdir+0x3ba>
  fd = open("dd/ff", O_CREATE | O_RDWR);
    3730:	20200593          	li	a1,514
    3734:	00004517          	auipc	a0,0x4
    3738:	dbc50513          	add	a0,a0,-580 # 74f0 <malloc+0x14a4>
    373c:	00002097          	auipc	ra,0x2
    3740:	530080e7          	jalr	1328(ra) # 5c6c <open>
    3744:	84aa                	mv	s1,a0
  if(fd < 0){
    3746:	38054763          	bltz	a0,3ad4 <subdir+0x3d6>
  write(fd, "ff", 2);
    374a:	4609                	li	a2,2
    374c:	00004597          	auipc	a1,0x4
    3750:	eb458593          	add	a1,a1,-332 # 7600 <malloc+0x15b4>
    3754:	00002097          	auipc	ra,0x2
    3758:	4f8080e7          	jalr	1272(ra) # 5c4c <write>
  close(fd);
    375c:	8526                	mv	a0,s1
    375e:	00002097          	auipc	ra,0x2
    3762:	4f6080e7          	jalr	1270(ra) # 5c54 <close>
  if(unlink("dd") >= 0){
    3766:	00004517          	auipc	a0,0x4
    376a:	d6a50513          	add	a0,a0,-662 # 74d0 <malloc+0x1484>
    376e:	00002097          	auipc	ra,0x2
    3772:	50e080e7          	jalr	1294(ra) # 5c7c <unlink>
    3776:	36055d63          	bgez	a0,3af0 <subdir+0x3f2>
  if(mkdir("/dd/dd") != 0){
    377a:	00004517          	auipc	a0,0x4
    377e:	dce50513          	add	a0,a0,-562 # 7548 <malloc+0x14fc>
    3782:	00002097          	auipc	ra,0x2
    3786:	512080e7          	jalr	1298(ra) # 5c94 <mkdir>
    378a:	38051163          	bnez	a0,3b0c <subdir+0x40e>
  fd = open("dd/dd/ff", O_CREATE | O_RDWR);
    378e:	20200593          	li	a1,514
    3792:	00004517          	auipc	a0,0x4
    3796:	dde50513          	add	a0,a0,-546 # 7570 <malloc+0x1524>
    379a:	00002097          	auipc	ra,0x2
    379e:	4d2080e7          	jalr	1234(ra) # 5c6c <open>
    37a2:	84aa                	mv	s1,a0
  if(fd < 0){
    37a4:	38054263          	bltz	a0,3b28 <subdir+0x42a>
  write(fd, "FF", 2);
    37a8:	4609                	li	a2,2
    37aa:	00004597          	auipc	a1,0x4
    37ae:	df658593          	add	a1,a1,-522 # 75a0 <malloc+0x1554>
    37b2:	00002097          	auipc	ra,0x2
    37b6:	49a080e7          	jalr	1178(ra) # 5c4c <write>
  close(fd);
    37ba:	8526                	mv	a0,s1
    37bc:	00002097          	auipc	ra,0x2
    37c0:	498080e7          	jalr	1176(ra) # 5c54 <close>
  fd = open("dd/dd/../ff", 0);
    37c4:	4581                	li	a1,0
    37c6:	00004517          	auipc	a0,0x4
    37ca:	de250513          	add	a0,a0,-542 # 75a8 <malloc+0x155c>
    37ce:	00002097          	auipc	ra,0x2
    37d2:	49e080e7          	jalr	1182(ra) # 5c6c <open>
    37d6:	84aa                	mv	s1,a0
  if(fd < 0){
    37d8:	36054663          	bltz	a0,3b44 <subdir+0x446>
  cc = read(fd, buf, sizeof(buf));
    37dc:	660d                	lui	a2,0x3
    37de:	00009597          	auipc	a1,0x9
    37e2:	49a58593          	add	a1,a1,1178 # cc78 <buf>
    37e6:	00002097          	auipc	ra,0x2
    37ea:	45e080e7          	jalr	1118(ra) # 5c44 <read>
  if(cc != 2 || buf[0] != 'f'){
    37ee:	4789                	li	a5,2
    37f0:	36f51863          	bne	a0,a5,3b60 <subdir+0x462>
    37f4:	00009717          	auipc	a4,0x9
    37f8:	48474703          	lbu	a4,1156(a4) # cc78 <buf>
    37fc:	06600793          	li	a5,102
    3800:	36f71063          	bne	a4,a5,3b60 <subdir+0x462>
  close(fd);
    3804:	8526                	mv	a0,s1
    3806:	00002097          	auipc	ra,0x2
    380a:	44e080e7          	jalr	1102(ra) # 5c54 <close>
  if(link("dd/dd/ff", "dd/dd/ffff") != 0){
    380e:	00004597          	auipc	a1,0x4
    3812:	dea58593          	add	a1,a1,-534 # 75f8 <malloc+0x15ac>
    3816:	00004517          	auipc	a0,0x4
    381a:	d5a50513          	add	a0,a0,-678 # 7570 <malloc+0x1524>
    381e:	00002097          	auipc	ra,0x2
    3822:	46e080e7          	jalr	1134(ra) # 5c8c <link>
    3826:	34051b63          	bnez	a0,3b7c <subdir+0x47e>
  if(unlink("dd/dd/ff") != 0){
    382a:	00004517          	auipc	a0,0x4
    382e:	d4650513          	add	a0,a0,-698 # 7570 <malloc+0x1524>
    3832:	00002097          	auipc	ra,0x2
    3836:	44a080e7          	jalr	1098(ra) # 5c7c <unlink>
    383a:	34051f63          	bnez	a0,3b98 <subdir+0x49a>
  if(open("dd/dd/ff", O_RDONLY) >= 0){
    383e:	4581                	li	a1,0
    3840:	00004517          	auipc	a0,0x4
    3844:	d3050513          	add	a0,a0,-720 # 7570 <malloc+0x1524>
    3848:	00002097          	auipc	ra,0x2
    384c:	424080e7          	jalr	1060(ra) # 5c6c <open>
    3850:	36055263          	bgez	a0,3bb4 <subdir+0x4b6>
  if(chdir("dd") != 0){
    3854:	00004517          	auipc	a0,0x4
    3858:	c7c50513          	add	a0,a0,-900 # 74d0 <malloc+0x1484>
    385c:	00002097          	auipc	ra,0x2
    3860:	440080e7          	jalr	1088(ra) # 5c9c <chdir>
    3864:	36051663          	bnez	a0,3bd0 <subdir+0x4d2>
  if(chdir("dd/../../dd") != 0){
    3868:	00004517          	auipc	a0,0x4
    386c:	e2850513          	add	a0,a0,-472 # 7690 <malloc+0x1644>
    3870:	00002097          	auipc	ra,0x2
    3874:	42c080e7          	jalr	1068(ra) # 5c9c <chdir>
    3878:	36051a63          	bnez	a0,3bec <subdir+0x4ee>
  if(chdir("dd/../../../dd") != 0){
    387c:	00004517          	auipc	a0,0x4
    3880:	e4450513          	add	a0,a0,-444 # 76c0 <malloc+0x1674>
    3884:	00002097          	auipc	ra,0x2
    3888:	418080e7          	jalr	1048(ra) # 5c9c <chdir>
    388c:	36051e63          	bnez	a0,3c08 <subdir+0x50a>
  if(chdir("./..") != 0){
    3890:	00004517          	auipc	a0,0x4
    3894:	e6050513          	add	a0,a0,-416 # 76f0 <malloc+0x16a4>
    3898:	00002097          	auipc	ra,0x2
    389c:	404080e7          	jalr	1028(ra) # 5c9c <chdir>
    38a0:	38051263          	bnez	a0,3c24 <subdir+0x526>
  fd = open("dd/dd/ffff", 0);
    38a4:	4581                	li	a1,0
    38a6:	00004517          	auipc	a0,0x4
    38aa:	d5250513          	add	a0,a0,-686 # 75f8 <malloc+0x15ac>
    38ae:	00002097          	auipc	ra,0x2
    38b2:	3be080e7          	jalr	958(ra) # 5c6c <open>
    38b6:	84aa                	mv	s1,a0
  if(fd < 0){
    38b8:	38054463          	bltz	a0,3c40 <subdir+0x542>
  if(read(fd, buf, sizeof(buf)) != 2){
    38bc:	660d                	lui	a2,0x3
    38be:	00009597          	auipc	a1,0x9
    38c2:	3ba58593          	add	a1,a1,954 # cc78 <buf>
    38c6:	00002097          	auipc	ra,0x2
    38ca:	37e080e7          	jalr	894(ra) # 5c44 <read>
    38ce:	4789                	li	a5,2
    38d0:	38f51663          	bne	a0,a5,3c5c <subdir+0x55e>
  close(fd);
    38d4:	8526                	mv	a0,s1
    38d6:	00002097          	auipc	ra,0x2
    38da:	37e080e7          	jalr	894(ra) # 5c54 <close>
  if(open("dd/dd/ff", O_RDONLY) >= 0){
    38de:	4581                	li	a1,0
    38e0:	00004517          	auipc	a0,0x4
    38e4:	c9050513          	add	a0,a0,-880 # 7570 <malloc+0x1524>
    38e8:	00002097          	auipc	ra,0x2
    38ec:	384080e7          	jalr	900(ra) # 5c6c <open>
    38f0:	38055463          	bgez	a0,3c78 <subdir+0x57a>
  if(open("dd/ff/ff", O_CREATE|O_RDWR) >= 0){
    38f4:	20200593          	li	a1,514
    38f8:	00004517          	auipc	a0,0x4
    38fc:	e8850513          	add	a0,a0,-376 # 7780 <malloc+0x1734>
    3900:	00002097          	auipc	ra,0x2
    3904:	36c080e7          	jalr	876(ra) # 5c6c <open>
    3908:	38055663          	bgez	a0,3c94 <subdir+0x596>
  if(open("dd/xx/ff", O_CREATE|O_RDWR) >= 0){
    390c:	20200593          	li	a1,514
    3910:	00004517          	auipc	a0,0x4
    3914:	ea050513          	add	a0,a0,-352 # 77b0 <malloc+0x1764>
    3918:	00002097          	auipc	ra,0x2
    391c:	354080e7          	jalr	852(ra) # 5c6c <open>
    3920:	38055863          	bgez	a0,3cb0 <subdir+0x5b2>
  if(open("dd", O_CREATE) >= 0){
    3924:	20000593          	li	a1,512
    3928:	00004517          	auipc	a0,0x4
    392c:	ba850513          	add	a0,a0,-1112 # 74d0 <malloc+0x1484>
    3930:	00002097          	auipc	ra,0x2
    3934:	33c080e7          	jalr	828(ra) # 5c6c <open>
    3938:	38055a63          	bgez	a0,3ccc <subdir+0x5ce>
  if(open("dd", O_RDWR) >= 0){
    393c:	4589                	li	a1,2
    393e:	00004517          	auipc	a0,0x4
    3942:	b9250513          	add	a0,a0,-1134 # 74d0 <malloc+0x1484>
    3946:	00002097          	auipc	ra,0x2
    394a:	326080e7          	jalr	806(ra) # 5c6c <open>
    394e:	38055d63          	bgez	a0,3ce8 <subdir+0x5ea>
  if(open("dd", O_WRONLY) >= 0){
    3952:	4585                	li	a1,1
    3954:	00004517          	auipc	a0,0x4
    3958:	b7c50513          	add	a0,a0,-1156 # 74d0 <malloc+0x1484>
    395c:	00002097          	auipc	ra,0x2
    3960:	310080e7          	jalr	784(ra) # 5c6c <open>
    3964:	3a055063          	bgez	a0,3d04 <subdir+0x606>
  if(link("dd/ff/ff", "dd/dd/xx") == 0){
    3968:	00004597          	auipc	a1,0x4
    396c:	ed858593          	add	a1,a1,-296 # 7840 <malloc+0x17f4>
    3970:	00004517          	auipc	a0,0x4
    3974:	e1050513          	add	a0,a0,-496 # 7780 <malloc+0x1734>
    3978:	00002097          	auipc	ra,0x2
    397c:	314080e7          	jalr	788(ra) # 5c8c <link>
    3980:	3a050063          	beqz	a0,3d20 <subdir+0x622>
  if(link("dd/xx/ff", "dd/dd/xx") == 0){
    3984:	00004597          	auipc	a1,0x4
    3988:	ebc58593          	add	a1,a1,-324 # 7840 <malloc+0x17f4>
    398c:	00004517          	auipc	a0,0x4
    3990:	e2450513          	add	a0,a0,-476 # 77b0 <malloc+0x1764>
    3994:	00002097          	auipc	ra,0x2
    3998:	2f8080e7          	jalr	760(ra) # 5c8c <link>
    399c:	3a050063          	beqz	a0,3d3c <subdir+0x63e>
  if(link("dd/ff", "dd/dd/ffff") == 0){
    39a0:	00004597          	auipc	a1,0x4
    39a4:	c5858593          	add	a1,a1,-936 # 75f8 <malloc+0x15ac>
    39a8:	00004517          	auipc	a0,0x4
    39ac:	b4850513          	add	a0,a0,-1208 # 74f0 <malloc+0x14a4>
    39b0:	00002097          	auipc	ra,0x2
    39b4:	2dc080e7          	jalr	732(ra) # 5c8c <link>
    39b8:	3a050063          	beqz	a0,3d58 <subdir+0x65a>
  if(mkdir("dd/ff/ff") == 0){
    39bc:	00004517          	auipc	a0,0x4
    39c0:	dc450513          	add	a0,a0,-572 # 7780 <malloc+0x1734>
    39c4:	00002097          	auipc	ra,0x2
    39c8:	2d0080e7          	jalr	720(ra) # 5c94 <mkdir>
